00000000  8816              mov [esi],dl
00000002  8F                db 0x8f
00000003  7CBD              jl 0xffffffc2
00000005  009089ECE86F      add [eax+0x6fe8ec89],dl
0000000B  00E8              add al,ch
0000000D  3D00EBFE60        cmp eax,0x60feeb00
00000012  52                push edx
00000013  B402              mov ah,0x2
00000015  88F0              mov al,dh
00000017  B102              mov cl,0x2
00000019  B500              mov ch,0x0
0000001B  B600              mov dh,0x0
0000001D  CD13              int 0x13
0000001F  7207              jc 0x28
00000021  5A                pop edx
00000022  38F0              cmp al,dh
00000024  7504              jnz 0x2a
00000026  61                popa
00000027  C3                ret
00000028  EB02              jmp short 0x2c
0000002A  EB00              jmp short 0x2c
0000002C  EBFE              jmp short 0x2c
0000002E  0000              add [eax],al
00000030  0000              add [eax],al
00000032  0000              add [eax],al
00000034  0000              add [eax],al
00000036  FF                db 0xff
00000037  FF00              inc dword [eax]
00000039  0000              add [eax],al
0000003B  9ACF00FFFF0000    call 0x0:0xffff00cf
00000042  0092CF001800      add [edx+0x1800cf],dl
00000048  2E7C00            cs jl 0x4b
0000004B  00FA              add dl,bh
0000004D  0F0116            lgdt [esi]
00000050  46                inc esi
00000051  7C0F              jl 0x62
00000053  20C0              and al,al
00000055  6683C801          or ax,byte +0x1
00000059  0F22C0            mov cr0,eax
0000005C  EA617C080066B8    jmp 0xb866:0x87c61
00000063  1000              adc [eax],al
00000065  8ED8              mov ds,eax
00000067  8ED0              mov ss,eax
00000069  8EC0              mov es,eax
0000006B  8EE0              mov fs,eax
0000006D  8EE8              mov gs,eax
0000006F  BD00000900        mov ebp,0x90000
00000074  89EC              mov esp,ebp
00000076  E80D000000        call 0x88
0000007B  BB0010B620        mov ebx,0x20b61000
00000080  8A16              mov dl,[esi]
00000082  8F                db 0x8f
00000083  7CE8              jl 0x6d
00000085  8AFF              mov bh,bh
00000087  C3                ret
00000088  E87393FFFF        call 0xffff9400
0000008D  EBFE              jmp short 0x8d
0000008F  0000              add [eax],al
00000091  0000              add [eax],al
00000093  0000              add [eax],al
00000095  0000              add [eax],al
00000097  0000              add [eax],al
00000099  0000              add [eax],al
0000009B  0000              add [eax],al
0000009D  0000              add [eax],al
0000009F  0000              add [eax],al
000000A1  0000              add [eax],al
000000A3  0000              add [eax],al
000000A5  0000              add [eax],al
000000A7  0000              add [eax],al
000000A9  0000              add [eax],al
000000AB  0000              add [eax],al
000000AD  0000              add [eax],al
000000AF  0000              add [eax],al
000000B1  0000              add [eax],al
000000B3  0000              add [eax],al
000000B5  0000              add [eax],al
000000B7  0000              add [eax],al
000000B9  0000              add [eax],al
000000BB  0000              add [eax],al
000000BD  0000              add [eax],al
000000BF  0000              add [eax],al
000000C1  0000              add [eax],al
000000C3  0000              add [eax],al
000000C5  0000              add [eax],al
000000C7  0000              add [eax],al
000000C9  0000              add [eax],al
000000CB  0000              add [eax],al
000000CD  0000              add [eax],al
000000CF  0000              add [eax],al
000000D1  0000              add [eax],al
000000D3  0000              add [eax],al
000000D5  0000              add [eax],al
000000D7  0000              add [eax],al
000000D9  0000              add [eax],al
000000DB  0000              add [eax],al
000000DD  0000              add [eax],al
000000DF  0000              add [eax],al
000000E1  0000              add [eax],al
000000E3  0000              add [eax],al
000000E5  0000              add [eax],al
000000E7  0000              add [eax],al
000000E9  0000              add [eax],al
000000EB  0000              add [eax],al
000000ED  0000              add [eax],al
000000EF  0000              add [eax],al
000000F1  0000              add [eax],al
000000F3  0000              add [eax],al
000000F5  0000              add [eax],al
000000F7  0000              add [eax],al
000000F9  0000              add [eax],al
000000FB  0000              add [eax],al
000000FD  0000              add [eax],al
000000FF  0000              add [eax],al
00000101  0000              add [eax],al
00000103  0000              add [eax],al
00000105  0000              add [eax],al
00000107  0000              add [eax],al
00000109  0000              add [eax],al
0000010B  0000              add [eax],al
0000010D  0000              add [eax],al
0000010F  0000              add [eax],al
00000111  0000              add [eax],al
00000113  0000              add [eax],al
00000115  0000              add [eax],al
00000117  0000              add [eax],al
00000119  0000              add [eax],al
0000011B  0000              add [eax],al
0000011D  0000              add [eax],al
0000011F  0000              add [eax],al
00000121  0000              add [eax],al
00000123  0000              add [eax],al
00000125  0000              add [eax],al
00000127  0000              add [eax],al
00000129  0000              add [eax],al
0000012B  0000              add [eax],al
0000012D  0000              add [eax],al
0000012F  0000              add [eax],al
00000131  0000              add [eax],al
00000133  0000              add [eax],al
00000135  0000              add [eax],al
00000137  0000              add [eax],al
00000139  0000              add [eax],al
0000013B  0000              add [eax],al
0000013D  0000              add [eax],al
0000013F  0000              add [eax],al
00000141  0000              add [eax],al
00000143  0000              add [eax],al
00000145  0000              add [eax],al
00000147  0000              add [eax],al
00000149  0000              add [eax],al
0000014B  0000              add [eax],al
0000014D  0000              add [eax],al
0000014F  0000              add [eax],al
00000151  0000              add [eax],al
00000153  0000              add [eax],al
00000155  0000              add [eax],al
00000157  0000              add [eax],al
00000159  0000              add [eax],al
0000015B  0000              add [eax],al
0000015D  0000              add [eax],al
0000015F  0000              add [eax],al
00000161  0000              add [eax],al
00000163  0000              add [eax],al
00000165  0000              add [eax],al
00000167  0000              add [eax],al
00000169  0000              add [eax],al
0000016B  0000              add [eax],al
0000016D  0000              add [eax],al
0000016F  0000              add [eax],al
00000171  0000              add [eax],al
00000173  0000              add [eax],al
00000175  0000              add [eax],al
00000177  0000              add [eax],al
00000179  0000              add [eax],al
0000017B  0000              add [eax],al
0000017D  0000              add [eax],al
0000017F  0000              add [eax],al
00000181  0000              add [eax],al
00000183  0000              add [eax],al
00000185  0000              add [eax],al
00000187  0000              add [eax],al
00000189  0000              add [eax],al
0000018B  0000              add [eax],al
0000018D  0000              add [eax],al
0000018F  0000              add [eax],al
00000191  0000              add [eax],al
00000193  0000              add [eax],al
00000195  0000              add [eax],al
00000197  0000              add [eax],al
00000199  0000              add [eax],al
0000019B  0000              add [eax],al
0000019D  0000              add [eax],al
0000019F  0000              add [eax],al
000001A1  0000              add [eax],al
000001A3  0000              add [eax],al
000001A5  0000              add [eax],al
000001A7  0000              add [eax],al
000001A9  0000              add [eax],al
000001AB  0000              add [eax],al
000001AD  0000              add [eax],al
000001AF  0000              add [eax],al
000001B1  0000              add [eax],al
000001B3  0000              add [eax],al
000001B5  0000              add [eax],al
000001B7  0000              add [eax],al
000001B9  0000              add [eax],al
000001BB  0000              add [eax],al
000001BD  0000              add [eax],al
000001BF  0000              add [eax],al
000001C1  0000              add [eax],al
000001C3  0000              add [eax],al
000001C5  0000              add [eax],al
000001C7  0000              add [eax],al
000001C9  0000              add [eax],al
000001CB  0000              add [eax],al
000001CD  0000              add [eax],al
000001CF  0000              add [eax],al
000001D1  0000              add [eax],al
000001D3  0000              add [eax],al
000001D5  0000              add [eax],al
000001D7  0000              add [eax],al
000001D9  0000              add [eax],al
000001DB  0000              add [eax],al
000001DD  0000              add [eax],al
000001DF  0000              add [eax],al
000001E1  0000              add [eax],al
000001E3  0000              add [eax],al
000001E5  0000              add [eax],al
000001E7  0000              add [eax],al
000001E9  0000              add [eax],al
000001EB  0000              add [eax],al
000001ED  0000              add [eax],al
000001EF  0000              add [eax],al
000001F1  0000              add [eax],al
000001F3  0000              add [eax],al
000001F5  0000              add [eax],al
000001F7  0000              add [eax],al
000001F9  0000              add [eax],al
000001FB  0000              add [eax],al
000001FD  0055AA            add [ebp-0x56],dl
00000200  E802000000        call 0x207
00000205  EBFE              jmp short 0x205
00000207  55                push ebp
00000208  89E5              mov ebp,esp
0000020A  83EC08            sub esp,byte +0x8
0000020D  E8EB020000        call 0x4fd
00000212  83EC0C            sub esp,byte +0xc
00000215  6884240000        push dword 0x2484
0000021A  E841020000        call 0x460
0000021F  83C410            add esp,byte +0x10
00000222  E89E0A0000        call 0xcc5
00000227  83EC0C            sub esp,byte +0xc
0000022A  6898240000        push dword 0x2498
0000022F  E82C020000        call 0x460
00000234  83C410            add esp,byte +0x10
00000237  83EC0C            sub esp,byte +0xc
0000023A  68A9240000        push dword 0x24a9
0000023F  E81C020000        call 0x460
00000244  83C410            add esp,byte +0x10
00000247  FB                sti
00000248  83EC0C            sub esp,byte +0xc
0000024B  68C3240000        push dword 0x24c3
00000250  E80B020000        call 0x460
00000255  83C410            add esp,byte +0x10
00000258  83EC0C            sub esp,byte +0xc
0000025B  68DA240000        push dword 0x24da
00000260  E8FB010000        call 0x460
00000265  83C410            add esp,byte +0x10
00000268  E896040000        call 0x703
0000026D  83EC0C            sub esp,byte +0xc
00000270  68F4240000        push dword 0x24f4
00000275  E8E6010000        call 0x460
0000027A  83C410            add esp,byte +0x10
0000027D  83EC0C            sub esp,byte +0xc
00000280  680C250000        push dword 0x250c
00000285  E8D6010000        call 0x460
0000028A  83C410            add esp,byte +0x10
0000028D  90                nop
0000028E  C9                leave
0000028F  C3                ret
00000290  55                push ebp
00000291  89E5              mov ebp,esp
00000293  83EC08            sub esp,byte +0x8
00000296  8B4508            mov eax,[ebp+0x8]
00000299  89C2              mov edx,eax
0000029B  C1EA1F            shr edx,byte 0x1f
0000029E  01D0              add eax,edx
000002A0  D1F8              sar eax,1
000002A2  894508            mov [ebp+0x8],eax
000002A5  83EC08            sub esp,byte +0x8
000002A8  6A0E              push byte +0xe
000002AA  68D4030000        push dword 0x3d4
000002AF  E887040000        call 0x73b
000002B4  83C410            add esp,byte +0x10
000002B7  8B4508            mov eax,[ebp+0x8]
000002BA  C1F808            sar eax,byte 0x8
000002BD  0FB6C0            movzx eax,al
000002C0  83EC08            sub esp,byte +0x8
000002C3  50                push eax
000002C4  68D5030000        push dword 0x3d5
000002C9  E86D040000        call 0x73b
000002CE  83C410            add esp,byte +0x10
000002D1  83EC08            sub esp,byte +0x8
000002D4  6A0F              push byte +0xf
000002D6  68D4030000        push dword 0x3d4
000002DB  E85B040000        call 0x73b
000002E0  83C410            add esp,byte +0x10
000002E3  8B4508            mov eax,[ebp+0x8]
000002E6  0FB6C0            movzx eax,al
000002E9  83EC08            sub esp,byte +0x8
000002EC  50                push eax
000002ED  68D5030000        push dword 0x3d5
000002F2  E844040000        call 0x73b
000002F7  83C410            add esp,byte +0x10
000002FA  90                nop
000002FB  C9                leave
000002FC  C3                ret
000002FD  55                push ebp
000002FE  89E5              mov ebp,esp
00000300  83EC18            sub esp,byte +0x18
00000303  83EC08            sub esp,byte +0x8
00000306  6A0E              push byte +0xe
00000308  68D4030000        push dword 0x3d4
0000030D  E829040000        call 0x73b
00000312  83C410            add esp,byte +0x10
00000315  83EC0C            sub esp,byte +0xc
00000318  68D5030000        push dword 0x3d5
0000031D  E8FC030000        call 0x71e
00000322  83C410            add esp,byte +0x10
00000325  0FB6C0            movzx eax,al
00000328  C1E008            shl eax,byte 0x8
0000032B  8945F4            mov [ebp-0xc],eax
0000032E  83EC08            sub esp,byte +0x8
00000331  6A0F              push byte +0xf
00000333  68D4030000        push dword 0x3d4
00000338  E8FE030000        call 0x73b
0000033D  83C410            add esp,byte +0x10
00000340  83EC0C            sub esp,byte +0xc
00000343  68D5030000        push dword 0x3d5
00000348  E8D1030000        call 0x71e
0000034D  83C410            add esp,byte +0x10
00000350  0FB6C0            movzx eax,al
00000353  0145F4            add [ebp-0xc],eax
00000356  8B45F4            mov eax,[ebp-0xc]
00000359  01C0              add eax,eax
0000035B  C9                leave
0000035C  C3                ret
0000035D  55                push ebp
0000035E  89E5              mov ebp,esp
00000360  8B4D08            mov ecx,[ebp+0x8]
00000363  BA67666666        mov edx,0x66666667
00000368  89C8              mov eax,ecx
0000036A  F7EA              imul edx
0000036C  C1FA06            sar edx,byte 0x6
0000036F  89C8              mov eax,ecx
00000371  C1F81F            sar eax,byte 0x1f
00000374  29C2              sub edx,eax
00000376  89D0              mov eax,edx
00000378  5D                pop ebp
00000379  C3                ret
0000037A  55                push ebp
0000037B  89E5              mov ebp,esp
0000037D  8B550C            mov edx,[ebp+0xc]
00000380  89D0              mov eax,edx
00000382  C1E002            shl eax,byte 0x2
00000385  01D0              add eax,edx
00000387  C1E004            shl eax,byte 0x4
0000038A  89C2              mov edx,eax
0000038C  8B4508            mov eax,[ebp+0x8]
0000038F  01D0              add eax,edx
00000391  01C0              add eax,eax
00000393  5D                pop ebp
00000394  C3                ret
00000395  55                push ebp
00000396  89E5              mov ebp,esp
00000398  FF7508            push dword [ebp+0x8]
0000039B  E8BDFFFFFF        call 0x35d
000003A0  83C404            add esp,byte +0x4
000003A3  83C001            add eax,byte +0x1
000003A6  50                push eax
000003A7  6A00              push byte +0x0
000003A9  E8CCFFFFFF        call 0x37a
000003AE  83C408            add esp,byte +0x8
000003B1  C9                leave
000003B2  C3                ret
000003B3  55                push ebp
000003B4  89E5              mov ebp,esp
000003B6  53                push ebx
000003B7  83EC14            sub esp,byte +0x14
000003BA  6A00              push byte +0x0
000003BC  6A00              push byte +0x0
000003BE  E8B7FFFFFF        call 0x37a
000003C3  83C408            add esp,byte +0x8
000003C6  0500800B00        add eax,0xb8000
000003CB  89C3              mov ebx,eax
000003CD  6A01              push byte +0x1
000003CF  6A00              push byte +0x0
000003D1  E8A4FFFFFF        call 0x37a
000003D6  83C408            add esp,byte +0x8
000003D9  0500800B00        add eax,0xb8000
000003DE  83EC04            sub esp,byte +0x4
000003E1  68000F0000        push dword 0xf00
000003E6  53                push ebx
000003E7  50                push eax
000003E8  E86D030000        call 0x75a
000003ED  83C410            add esp,byte +0x10
000003F0  C745F400000000    mov dword [ebp-0xc],0x0
000003F7  EB22              jmp short 0x41b
000003F9  83EC08            sub esp,byte +0x8
000003FC  6A18              push byte +0x18
000003FE  FF75F4            push dword [ebp-0xc]
00000401  E874FFFFFF        call 0x37a
00000406  83C410            add esp,byte +0x10
00000409  83EC08            sub esp,byte +0x8
0000040C  50                push eax
0000040D  6A20              push byte +0x20
0000040F  E81A000000        call 0x42e
00000414  83C410            add esp,byte +0x10
00000417  8345F401          add dword [ebp-0xc],byte +0x1
0000041B  837DF44F          cmp dword [ebp-0xc],byte +0x4f
0000041F  7ED8              jng 0x3f9
00000421  8B4508            mov eax,[ebp+0x8]
00000424  2DA0000000        sub eax,0xa0
00000429  8B5DFC            mov ebx,[ebp-0x4]
0000042C  C9                leave
0000042D  C3                ret
0000042E  55                push ebp
0000042F  89E5              mov ebp,esp
00000431  83EC14            sub esp,byte +0x14
00000434  8B4508            mov eax,[ebp+0x8]
00000437  8845EC            mov [ebp-0x14],al
0000043A  C745FC00800B00    mov dword [ebp-0x4],0xb8000
00000441  8B550C            mov edx,[ebp+0xc]
00000444  8B45FC            mov eax,[ebp-0x4]
00000447  01C2              add edx,eax
00000449  0FB645EC          movzx eax,byte [ebp-0x14]
0000044D  8802              mov [edx],al
0000044F  8B450C            mov eax,[ebp+0xc]
00000452  8D5001            lea edx,[eax+0x1]
00000455  8B45FC            mov eax,[ebp-0x4]
00000458  01D0              add eax,edx
0000045A  C6000F            mov byte [eax],0xf
0000045D  90                nop
0000045E  C9                leave
0000045F  C3                ret
00000460  55                push ebp
00000461  89E5              mov ebp,esp
00000463  83EC18            sub esp,byte +0x18
00000466  C745F400000000    mov dword [ebp-0xc],0x0
0000046D  E88BFEFFFF        call 0x2fd
00000472  8945F0            mov [ebp-0x10],eax
00000475  EB66              jmp short 0x4dd
00000477  817DF09F0F0000    cmp dword [ebp-0x10],0xf9f
0000047E  7E11              jng 0x491
00000480  83EC0C            sub esp,byte +0xc
00000483  FF75F0            push dword [ebp-0x10]
00000486  E828FFFFFF        call 0x3b3
0000048B  83C410            add esp,byte +0x10
0000048E  8945F0            mov [ebp-0x10],eax
00000491  8B55F4            mov edx,[ebp-0xc]
00000494  8B4508            mov eax,[ebp+0x8]
00000497  01D0              add eax,edx
00000499  0FB600            movzx eax,byte [eax]
0000049C  0FBEC0            movsx eax,al
0000049F  83F80A            cmp eax,byte +0xa
000004A2  7513              jnz 0x4b7
000004A4  83EC0C            sub esp,byte +0xc
000004A7  FF75F0            push dword [ebp-0x10]
000004AA  E8E6FEFFFF        call 0x395
000004AF  83C410            add esp,byte +0x10
000004B2  8945F0            mov [ebp-0x10],eax
000004B5  EB22              jmp short 0x4d9
000004B7  8B55F4            mov edx,[ebp-0xc]
000004BA  8B4508            mov eax,[ebp+0x8]
000004BD  01D0              add eax,edx
000004BF  0FB600            movzx eax,byte [eax]
000004C2  0FBEC0            movsx eax,al
000004C5  83EC08            sub esp,byte +0x8
000004C8  FF75F0            push dword [ebp-0x10]
000004CB  50                push eax
000004CC  E85DFFFFFF        call 0x42e
000004D1  83C410            add esp,byte +0x10
000004D4  8345F002          add dword [ebp-0x10],byte +0x2
000004D8  90                nop
000004D9  8345F401          add dword [ebp-0xc],byte +0x1
000004DD  8B55F4            mov edx,[ebp-0xc]
000004E0  8B4508            mov eax,[ebp+0x8]
000004E3  01D0              add eax,edx
000004E5  0FB600            movzx eax,byte [eax]
000004E8  84C0              test al,al
000004EA  758B              jnz 0x477
000004EC  83EC0C            sub esp,byte +0xc
000004EF  FF75F0            push dword [ebp-0x10]
000004F2  E899FDFFFF        call 0x290
000004F7  83C410            add esp,byte +0x10
000004FA  90                nop
000004FB  C9                leave
000004FC  C3                ret
000004FD  55                push ebp
000004FE  89E5              mov ebp,esp
00000500  83EC18            sub esp,byte +0x18
00000503  C745F400000000    mov dword [ebp-0xc],0x0
0000050A  EB14              jmp short 0x520
0000050C  8B45F4            mov eax,[ebp-0xc]
0000050F  01C0              add eax,eax
00000511  50                push eax
00000512  6A20              push byte +0x20
00000514  E815FFFFFF        call 0x42e
00000519  83C408            add esp,byte +0x8
0000051C  8345F401          add dword [ebp-0xc],byte +0x1
00000520  817DF4CF070000    cmp dword [ebp-0xc],0x7cf
00000527  7EE3              jng 0x50c
00000529  6A00              push byte +0x0
0000052B  6A00              push byte +0x0
0000052D  E848FEFFFF        call 0x37a
00000532  83C408            add esp,byte +0x8
00000535  83EC0C            sub esp,byte +0xc
00000538  50                push eax
00000539  E852FDFFFF        call 0x290
0000053E  83C410            add esp,byte +0x10
00000541  90                nop
00000542  C9                leave
00000543  C3                ret
00000544  55                push ebp
00000545  89E5              mov ebp,esp
00000547  83EC18            sub esp,byte +0x18
0000054A  83EC0C            sub esp,byte +0xc
0000054D  FF7508            push dword [ebp+0x8]
00000550  E8950D0000        call 0x12ea
00000555  83C410            add esp,byte +0x10
00000558  8945F4            mov [ebp-0xc],eax
0000055B  837DF400          cmp dword [ebp-0xc],byte +0x0
0000055F  7E38              jng 0x599
00000561  E897FDFFFF        call 0x2fd
00000566  8945F0            mov [ebp-0x10],eax
00000569  836DF002          sub dword [ebp-0x10],byte +0x2
0000056D  83EC08            sub esp,byte +0x8
00000570  FF75F0            push dword [ebp-0x10]
00000573  6A20              push byte +0x20
00000575  E8B4FEFFFF        call 0x42e
0000057A  83C410            add esp,byte +0x10
0000057D  83EC0C            sub esp,byte +0xc
00000580  FF75F0            push dword [ebp-0x10]
00000583  E808FDFFFF        call 0x290
00000588  83C410            add esp,byte +0x10
0000058B  8B45F4            mov eax,[ebp-0xc]
0000058E  8D50FF            lea edx,[eax-0x1]
00000591  8B4508            mov eax,[ebp+0x8]
00000594  01D0              add eax,edx
00000596  C60000            mov byte [eax],0x0
00000599  90                nop
0000059A  C9                leave
0000059B  C3                ret
0000059C  55                push ebp
0000059D  89E5              mov ebp,esp
0000059F  83EC18            sub esp,byte +0x18
000005A2  83EC0C            sub esp,byte +0xc
000005A5  6A60              push byte +0x60
000005A7  E872010000        call 0x71e
000005AC  83C410            add esp,byte +0x10
000005AF  8845F3            mov [ebp-0xd],al
000005B2  807DF359          cmp byte [ebp-0xd],0x59
000005B6  0F8710010000      ja near 0x6cc
000005BC  0FB645F3          movzx eax,byte [ebp-0xd]
000005C0  83E80E            sub eax,byte +0xe
000005C3  83F82C            cmp eax,byte +0x2c
000005C6  7779              ja 0x641
000005C8  8B04855C2A0000    mov eax,[eax*4+0x2a5c]
000005CF  FFE0              jmp eax
000005D1  83EC0C            sub esp,byte +0xc
000005D4  68C04A0000        push dword 0x4ac0
000005D9  E866FFFFFF        call 0x544
000005DE  83C410            add esp,byte +0x10
000005E1  E91A010000        jmp 0x700
000005E6  83EC0C            sub esp,byte +0xc
000005E9  685A2A0000        push dword 0x2a5a
000005EE  E86DFEFFFF        call 0x460
000005F3  83C410            add esp,byte +0x10
000005F6  83EC0C            sub esp,byte +0xc
000005F9  68C04A0000        push dword 0x4ac0
000005FE  E86B0E0000        call 0x146e
00000603  83C410            add esp,byte +0x10
00000606  E9F5000000        jmp 0x700
0000060B  0FB605A14A0000    movzx eax,byte [dword 0x4aa1]
00000612  83C001            add eax,byte +0x1
00000615  A2A14A0000        mov [0x4aa1],al
0000061A  E9E1000000        jmp 0x700
0000061F  0FB605A04A0000    movzx eax,byte [dword 0x4aa0]
00000626  0FB6C0            movzx eax,al
00000629  85C0              test eax,eax
0000062B  0F95C0            setnz al
0000062E  83F001            xor eax,byte +0x1
00000631  0FB6C0            movzx eax,al
00000634  83E001            and eax,byte +0x1
00000637  A2A04A0000        mov [0x4aa0],al
0000063C  E9BF000000        jmp 0x700
00000641  0FB605A14A0000    movzx eax,byte [dword 0x4aa1]
00000648  84C0              test al,al
0000064A  741E              jz 0x66a
0000064C  0FB645F3          movzx eax,byte [ebp-0xd]
00000650  8B048560460000    mov eax,[eax*4+0x4660]
00000657  8945F4            mov [ebp-0xc],eax
0000065A  83EC0C            sub esp,byte +0xc
0000065D  FF75F4            push dword [ebp-0xc]
00000660  E8FBFDFFFF        call 0x460
00000665  83C410            add esp,byte +0x10
00000668  EB45              jmp short 0x6af
0000066A  0FB605A04A0000    movzx eax,byte [dword 0x4aa0]
00000671  84C0              test al,al
00000673  741E              jz 0x693
00000675  0FB645F3          movzx eax,byte [ebp-0xd]
00000679  8B0485E0440000    mov eax,[eax*4+0x44e0]
00000680  8945F4            mov [ebp-0xc],eax
00000683  83EC0C            sub esp,byte +0xc
00000686  FF75F4            push dword [ebp-0xc]
00000689  E8D2FDFFFF        call 0x460
0000068E  83C410            add esp,byte +0x10
00000691  EB1C              jmp short 0x6af
00000693  0FB645F3          movzx eax,byte [ebp-0xd]
00000697  8B048560430000    mov eax,[eax*4+0x4360]
0000069E  8945F4            mov [ebp-0xc],eax
000006A1  83EC0C            sub esp,byte +0xc
000006A4  FF75F4            push dword [ebp-0xc]
000006A7  E8B4FDFFFF        call 0x460
000006AC  83C410            add esp,byte +0x10
000006AF  8B45F4            mov eax,[ebp-0xc]
000006B2  0FB600            movzx eax,byte [eax]
000006B5  0FBEC0            movsx eax,al
000006B8  83EC08            sub esp,byte +0x8
000006BB  50                push eax
000006BC  68C04A0000        push dword 0x4ac0
000006C1  E84B0C0000        call 0x1311
000006C6  83C410            add esp,byte +0x10
000006C9  90                nop
000006CA  EB34              jmp short 0x700
000006CC  0FB645F3          movzx eax,byte [ebp-0xd]
000006D0  84C0              test al,al
000006D2  792B              jns 0x6ff
000006D4  807DF3D4          cmp byte [ebp-0xd],0xd4
000006D8  7725              ja 0x6ff
000006DA  0FB645F3          movzx eax,byte [ebp-0xd]
000006DE  3DAA000000        cmp eax,0xaa
000006E3  7409              jz 0x6ee
000006E5  3DB6000000        cmp eax,0xb6
000006EA  7402              jz 0x6ee
000006EC  EB12              jmp short 0x700
000006EE  0FB605A14A0000    movzx eax,byte [dword 0x4aa1]
000006F5  83E801            sub eax,byte +0x1
000006F8  A2A14A0000        mov [0x4aa1],al
000006FD  EB01              jmp short 0x700
000006FF  90                nop
00000700  90                nop
00000701  C9                leave
00000702  C3                ret
00000703  55                push ebp
00000704  89E5              mov ebp,esp
00000706  83EC08            sub esp,byte +0x8
00000709  83EC08            sub esp,byte +0x8
0000070C  689C130000        push dword 0x139c
00000711  6A21              push byte +0x21
00000713  E8E2000000        call 0x7fa
00000718  83C410            add esp,byte +0x10
0000071B  90                nop
0000071C  C9                leave
0000071D  C3                ret
0000071E  55                push ebp
0000071F  89E5              mov ebp,esp
00000721  83EC14            sub esp,byte +0x14
00000724  8B4508            mov eax,[ebp+0x8]
00000727  668945EC          mov [ebp-0x14],ax
0000072B  0FB745EC          movzx eax,word [ebp-0x14]
0000072F  89C2              mov edx,eax
00000731  EC                in al,dx
00000732  8845FF            mov [ebp-0x1],al
00000735  0FB645FF          movzx eax,byte [ebp-0x1]
00000739  C9                leave
0000073A  C3                ret
0000073B  55                push ebp
0000073C  89E5              mov ebp,esp
0000073E  83EC08            sub esp,byte +0x8
00000741  8B5508            mov edx,[ebp+0x8]
00000744  8B450C            mov eax,[ebp+0xc]
00000747  668955FC          mov [ebp-0x4],dx
0000074B  8845F8            mov [ebp-0x8],al
0000074E  0FB645F8          movzx eax,byte [ebp-0x8]
00000752  0FB755FC          movzx edx,word [ebp-0x4]
00000756  EE                out dx,al
00000757  90                nop
00000758  C9                leave
00000759  C3                ret
0000075A  55                push ebp
0000075B  89E5              mov ebp,esp
0000075D  83EC10            sub esp,byte +0x10
00000760  C745FC00000000    mov dword [ebp-0x4],0x0
00000767  EB19              jmp short 0x782
00000769  8B55FC            mov edx,[ebp-0x4]
0000076C  8B4508            mov eax,[ebp+0x8]
0000076F  01D0              add eax,edx
00000771  8B4DFC            mov ecx,[ebp-0x4]
00000774  8B550C            mov edx,[ebp+0xc]
00000777  01CA              add edx,ecx
00000779  0FB600            movzx eax,byte [eax]
0000077C  8802              mov [edx],al
0000077E  8345FC01          add dword [ebp-0x4],byte +0x1
00000782  8B45FC            mov eax,[ebp-0x4]
00000785  3B4510            cmp eax,[ebp+0x10]
00000788  7CDF              jl 0x769
0000078A  90                nop
0000078B  C9                leave
0000078C  C3                ret
0000078D  55                push ebp
0000078E  89E5              mov ebp,esp
00000790  8B450C            mov eax,[ebp+0xc]
00000793  89C2              mov edx,eax
00000795  8B4508            mov eax,[ebp+0x8]
00000798  668914C5C04F0000  mov [eax*8+0x4fc0],dx
000007A0  8B4508            mov eax,[ebp+0x8]
000007A3  66C704C5C24F0000  mov word [eax*8+0x4fc2],0x8
         -0800
000007AD  8B4508            mov eax,[ebp+0x8]
000007B0  C604C5C44F000000  mov byte [eax*8+0x4fc4],0x0
000007B8  8B4508            mov eax,[ebp+0x8]
000007BB  C604C5C54F00008E  mov byte [eax*8+0x4fc5],0x8e
000007C3  8B450C            mov eax,[ebp+0xc]
000007C6  C1E810            shr eax,byte 0x10
000007C9  89C2              mov edx,eax
000007CB  8B4508            mov eax,[ebp+0x8]
000007CE  668914C5C64F0000  mov [eax*8+0x4fc6],dx
000007D6  90                nop
000007D7  5D                pop ebp
000007D8  C3                ret
000007D9  55                push ebp
000007DA  89E5              mov ebp,esp
000007DC  B8C04F0000        mov eax,0x4fc0
000007E1  A3C2570000        mov [0x57c2],eax
000007E6  66C705C0570000FF  mov word [dword 0x57c0],0x7ff
         -07
000007EF  B8C0570000        mov eax,0x57c0
000007F4  0F0118            lidt [eax]
000007F7  90                nop
000007F8  5D                pop ebp
000007F9  C3                ret
000007FA  55                push ebp
000007FB  89E5              mov ebp,esp
000007FD  8B4508            mov eax,[ebp+0x8]
00000800  8B550C            mov edx,[ebp+0xc]
00000803  891485C04B0000    mov [eax*4+0x4bc0],edx
0000080A  90                nop
0000080B  5D                pop ebp
0000080C  C3                ret
0000080D  55                push ebp
0000080E  89E5              mov ebp,esp
00000810  83EC18            sub esp,byte +0x18
00000813  8B4508            mov eax,[ebp+0x8]
00000816  8B4024            mov eax,[eax+0x24]
00000819  8B0485C04B0000    mov eax,[eax*4+0x4bc0]
00000820  85C0              test eax,eax
00000822  741E              jz 0x842
00000824  8B4508            mov eax,[ebp+0x8]
00000827  8B4024            mov eax,[eax+0x24]
0000082A  8B0485C04B0000    mov eax,[eax*4+0x4bc0]
00000831  8945F4            mov [ebp-0xc],eax
00000834  83EC0C            sub esp,byte +0xc
00000837  FF7508            push dword [ebp+0x8]
0000083A  8B45F4            mov eax,[ebp-0xc]
0000083D  FFD0              call eax
0000083F  83C410            add esp,byte +0x10
00000842  83EC08            sub esp,byte +0x8
00000845  6A20              push byte +0x20
00000847  6A20              push byte +0x20
00000849  E8EDFEFFFF        call 0x73b
0000084E  83C410            add esp,byte +0x10
00000851  8B4508            mov eax,[ebp+0x8]
00000854  8B4024            mov eax,[eax+0x24]
00000857  83F827            cmp eax,byte +0x27
0000085A  7712              ja 0x86e
0000085C  83EC08            sub esp,byte +0x8
0000085F  6A20              push byte +0x20
00000861  68A0000000        push dword 0xa0
00000866  E8D0FEFFFF        call 0x73b
0000086B  83C410            add esp,byte +0x10
0000086E  90                nop
0000086F  C9                leave
00000870  C3                ret
00000871  55                push ebp
00000872  89E5              mov ebp,esp
00000874  81EC98000000      sub esp,0x98
0000087A  8B4508            mov eax,[ebp+0x8]
0000087D  8B00              mov eax,[eax]
0000087F  83EC08            sub esp,byte +0x8
00000882  8D9568FFFFFF      lea edx,[ebp-0x98]
00000888  52                push edx
00000889  50                push eax
0000088A  E86A0B0000        call 0x13f9
0000088F  83C410            add esp,byte +0x10
00000892  8B4508            mov eax,[ebp+0x8]
00000895  8B4004            mov eax,[eax+0x4]
00000898  83EC08            sub esp,byte +0x8
0000089B  8D9568FFFFFF      lea edx,[ebp-0x98]
000008A1  83C209            add edx,byte +0x9
000008A4  52                push edx
000008A5  50                push eax
000008A6  E84E0B0000        call 0x13f9
000008AB  83C410            add esp,byte +0x10
000008AE  8B4508            mov eax,[ebp+0x8]
000008B1  8B4008            mov eax,[eax+0x8]
000008B4  83EC08            sub esp,byte +0x8
000008B7  8D9568FFFFFF      lea edx,[ebp-0x98]
000008BD  83C212            add edx,byte +0x12
000008C0  52                push edx
000008C1  50                push eax
000008C2  E8320B0000        call 0x13f9
000008C7  83C410            add esp,byte +0x10
000008CA  8B4508            mov eax,[ebp+0x8]
000008CD  8B400C            mov eax,[eax+0xc]
000008D0  83EC08            sub esp,byte +0x8
000008D3  8D9568FFFFFF      lea edx,[ebp-0x98]
000008D9  83C21B            add edx,byte +0x1b
000008DC  52                push edx
000008DD  50                push eax
000008DE  E8160B0000        call 0x13f9
000008E3  83C410            add esp,byte +0x10
000008E6  8B4508            mov eax,[ebp+0x8]
000008E9  8B4010            mov eax,[eax+0x10]
000008EC  83EC08            sub esp,byte +0x8
000008EF  8D9568FFFFFF      lea edx,[ebp-0x98]
000008F5  83C224            add edx,byte +0x24
000008F8  52                push edx
000008F9  50                push eax
000008FA  E8FA0A0000        call 0x13f9
000008FF  83C410            add esp,byte +0x10
00000902  8B4508            mov eax,[ebp+0x8]
00000905  8B4014            mov eax,[eax+0x14]
00000908  83EC08            sub esp,byte +0x8
0000090B  8D9568FFFFFF      lea edx,[ebp-0x98]
00000911  83C22D            add edx,byte +0x2d
00000914  52                push edx
00000915  50                push eax
00000916  E8DE0A0000        call 0x13f9
0000091B  83C410            add esp,byte +0x10
0000091E  8B4508            mov eax,[ebp+0x8]
00000921  8B4018            mov eax,[eax+0x18]
00000924  83EC08            sub esp,byte +0x8
00000927  8D9568FFFFFF      lea edx,[ebp-0x98]
0000092D  83C236            add edx,byte +0x36
00000930  52                push edx
00000931  50                push eax
00000932  E8C20A0000        call 0x13f9
00000937  83C410            add esp,byte +0x10
0000093A  8B4508            mov eax,[ebp+0x8]
0000093D  8B401C            mov eax,[eax+0x1c]
00000940  83EC08            sub esp,byte +0x8
00000943  8D9568FFFFFF      lea edx,[ebp-0x98]
00000949  83C23F            add edx,byte +0x3f
0000094C  52                push edx
0000094D  50                push eax
0000094E  E8A60A0000        call 0x13f9
00000953  83C410            add esp,byte +0x10
00000956  8B4508            mov eax,[ebp+0x8]
00000959  8B4020            mov eax,[eax+0x20]
0000095C  83EC08            sub esp,byte +0x8
0000095F  8D9568FFFFFF      lea edx,[ebp-0x98]
00000965  83C248            add edx,byte +0x48
00000968  52                push edx
00000969  50                push eax
0000096A  E88A0A0000        call 0x13f9
0000096F  83C410            add esp,byte +0x10
00000972  8B4508            mov eax,[ebp+0x8]
00000975  8B4024            mov eax,[eax+0x24]
00000978  83EC08            sub esp,byte +0x8
0000097B  8D9568FFFFFF      lea edx,[ebp-0x98]
00000981  83C251            add edx,byte +0x51
00000984  52                push edx
00000985  50                push eax
00000986  E86E0A0000        call 0x13f9
0000098B  83C410            add esp,byte +0x10
0000098E  8B4508            mov eax,[ebp+0x8]
00000991  8B4028            mov eax,[eax+0x28]
00000994  83EC08            sub esp,byte +0x8
00000997  8D9568FFFFFF      lea edx,[ebp-0x98]
0000099D  83C25A            add edx,byte +0x5a
000009A0  52                push edx
000009A1  50                push eax
000009A2  E8520A0000        call 0x13f9
000009A7  83C410            add esp,byte +0x10
000009AA  8B4508            mov eax,[ebp+0x8]
000009AD  8B402C            mov eax,[eax+0x2c]
000009B0  83EC08            sub esp,byte +0x8
000009B3  8D9568FFFFFF      lea edx,[ebp-0x98]
000009B9  83C263            add edx,byte +0x63
000009BC  52                push edx
000009BD  50                push eax
000009BE  E8360A0000        call 0x13f9
000009C3  83C410            add esp,byte +0x10
000009C6  8B4508            mov eax,[ebp+0x8]
000009C9  8B4030            mov eax,[eax+0x30]
000009CC  83EC08            sub esp,byte +0x8
000009CF  8D9568FFFFFF      lea edx,[ebp-0x98]
000009D5  83C26C            add edx,byte +0x6c
000009D8  52                push edx
000009D9  50                push eax
000009DA  E81A0A0000        call 0x13f9
000009DF  83C410            add esp,byte +0x10
000009E2  8B4508            mov eax,[ebp+0x8]
000009E5  8B4034            mov eax,[eax+0x34]
000009E8  83EC08            sub esp,byte +0x8
000009EB  8D9568FFFFFF      lea edx,[ebp-0x98]
000009F1  83C275            add edx,byte +0x75
000009F4  52                push edx
000009F5  50                push eax
000009F6  E8FE090000        call 0x13f9
000009FB  83C410            add esp,byte +0x10
000009FE  8B4508            mov eax,[ebp+0x8]
00000A01  8B4038            mov eax,[eax+0x38]
00000A04  83EC08            sub esp,byte +0x8
00000A07  8D9568FFFFFF      lea edx,[ebp-0x98]
00000A0D  83C27E            add edx,byte +0x7e
00000A10  52                push edx
00000A11  50                push eax
00000A12  E8E2090000        call 0x13f9
00000A17  83C410            add esp,byte +0x10
00000A1A  8B4508            mov eax,[ebp+0x8]
00000A1D  8B403C            mov eax,[eax+0x3c]
00000A20  83EC08            sub esp,byte +0x8
00000A23  8D9568FFFFFF      lea edx,[ebp-0x98]
00000A29  81C287000000      add edx,0x87
00000A2F  52                push edx
00000A30  50                push eax
00000A31  E8C3090000        call 0x13f9
00000A36  83C410            add esp,byte +0x10
00000A39  83EC0C            sub esp,byte +0xc
00000A3C  684C2C0000        push dword 0x2c4c
00000A41  E81AFAFFFF        call 0x460
00000A46  83C410            add esp,byte +0x10
00000A49  8B4508            mov eax,[ebp+0x8]
00000A4C  8B4024            mov eax,[eax+0x24]
00000A4F  8B0485E0470000    mov eax,[eax*4+0x47e0]
00000A56  83EC0C            sub esp,byte +0xc
00000A59  50                push eax
00000A5A  E801FAFFFF        call 0x460
00000A5F  83C410            add esp,byte +0x10
00000A62  83EC0C            sub esp,byte +0xc
00000A65  68672C0000        push dword 0x2c67
00000A6A  E8F1F9FFFF        call 0x460
00000A6F  83C410            add esp,byte +0x10
00000A72  83EC0C            sub esp,byte +0xc
00000A75  8D8568FFFFFF      lea eax,[ebp-0x98]
00000A7B  50                push eax
00000A7C  E8DFF9FFFF        call 0x460
00000A81  83C410            add esp,byte +0x10
00000A84  83EC0C            sub esp,byte +0xc
00000A87  686D2C0000        push dword 0x2c6d
00000A8C  E8CFF9FFFF        call 0x460
00000A91  83C410            add esp,byte +0x10
00000A94  83EC0C            sub esp,byte +0xc
00000A97  8D8568FFFFFF      lea eax,[ebp-0x98]
00000A9D  83C009            add eax,byte +0x9
00000AA0  50                push eax
00000AA1  E8BAF9FFFF        call 0x460
00000AA6  83C410            add esp,byte +0x10
00000AA9  83EC0C            sub esp,byte +0xc
00000AAC  68742C0000        push dword 0x2c74
00000AB1  E8AAF9FFFF        call 0x460
00000AB6  83C410            add esp,byte +0x10
00000AB9  83EC0C            sub esp,byte +0xc
00000ABC  8D8568FFFFFF      lea eax,[ebp-0x98]
00000AC2  83C012            add eax,byte +0x12
00000AC5  50                push eax
00000AC6  E895F9FFFF        call 0x460
00000ACB  83C410            add esp,byte +0x10
00000ACE  83EC0C            sub esp,byte +0xc
00000AD1  687B2C0000        push dword 0x2c7b
00000AD6  E885F9FFFF        call 0x460
00000ADB  83C410            add esp,byte +0x10
00000ADE  83EC0C            sub esp,byte +0xc
00000AE1  8D8568FFFFFF      lea eax,[ebp-0x98]
00000AE7  83C01B            add eax,byte +0x1b
00000AEA  50                push eax
00000AEB  E870F9FFFF        call 0x460
00000AF0  83C410            add esp,byte +0x10
00000AF3  83EC0C            sub esp,byte +0xc
00000AF6  68822C0000        push dword 0x2c82
00000AFB  E860F9FFFF        call 0x460
00000B00  83C410            add esp,byte +0x10
00000B03  83EC0C            sub esp,byte +0xc
00000B06  8D8568FFFFFF      lea eax,[ebp-0x98]
00000B0C  83C024            add eax,byte +0x24
00000B0F  50                push eax
00000B10  E84BF9FFFF        call 0x460
00000B15  83C410            add esp,byte +0x10
00000B18  83EC0C            sub esp,byte +0xc
00000B1B  68892C0000        push dword 0x2c89
00000B20  E83BF9FFFF        call 0x460
00000B25  83C410            add esp,byte +0x10
00000B28  83EC0C            sub esp,byte +0xc
00000B2B  8D8568FFFFFF      lea eax,[ebp-0x98]
00000B31  83C048            add eax,byte +0x48
00000B34  50                push eax
00000B35  E826F9FFFF        call 0x460
00000B3A  83C410            add esp,byte +0x10
00000B3D  83EC0C            sub esp,byte +0xc
00000B40  68902C0000        push dword 0x2c90
00000B45  E816F9FFFF        call 0x460
00000B4A  83C410            add esp,byte +0x10
00000B4D  83EC0C            sub esp,byte +0xc
00000B50  8D8568FFFFFF      lea eax,[ebp-0x98]
00000B56  83C02D            add eax,byte +0x2d
00000B59  50                push eax
00000B5A  E801F9FFFF        call 0x460
00000B5F  83C410            add esp,byte +0x10
00000B62  83EC0C            sub esp,byte +0xc
00000B65  68972C0000        push dword 0x2c97
00000B6A  E8F1F8FFFF        call 0x460
00000B6F  83C410            add esp,byte +0x10
00000B72  83EC0C            sub esp,byte +0xc
00000B75  8D8568FFFFFF      lea eax,[ebp-0x98]
00000B7B  83C03F            add eax,byte +0x3f
00000B7E  50                push eax
00000B7F  E8DCF8FFFF        call 0x460
00000B84  83C410            add esp,byte +0x10
00000B87  83EC0C            sub esp,byte +0xc
00000B8A  689E2C0000        push dword 0x2c9e
00000B8F  E8CCF8FFFF        call 0x460
00000B94  83C410            add esp,byte +0x10
00000B97  83EC0C            sub esp,byte +0xc
00000B9A  8D8568FFFFFF      lea eax,[ebp-0x98]
00000BA0  83C036            add eax,byte +0x36
00000BA3  50                push eax
00000BA4  E8B7F8FFFF        call 0x460
00000BA9  83C410            add esp,byte +0x10
00000BAC  83EC0C            sub esp,byte +0xc
00000BAF  68A52C0000        push dword 0x2ca5
00000BB4  E8A7F8FFFF        call 0x460
00000BB9  83C410            add esp,byte +0x10
00000BBC  83EC0C            sub esp,byte +0xc
00000BBF  8D8568FFFFFF      lea eax,[ebp-0x98]
00000BC5  83C051            add eax,byte +0x51
00000BC8  50                push eax
00000BC9  E892F8FFFF        call 0x460
00000BCE  83C410            add esp,byte +0x10
00000BD1  83EC0C            sub esp,byte +0xc
00000BD4  68AF2C0000        push dword 0x2caf
00000BD9  E882F8FFFF        call 0x460
00000BDE  83C410            add esp,byte +0x10
00000BE1  83EC0C            sub esp,byte +0xc
00000BE4  8D8568FFFFFF      lea eax,[ebp-0x98]
00000BEA  83C05A            add eax,byte +0x5a
00000BED  50                push eax
00000BEE  E86DF8FFFF        call 0x460
00000BF3  83C410            add esp,byte +0x10
00000BF6  83EC0C            sub esp,byte +0xc
00000BF9  68BD2C0000        push dword 0x2cbd
00000BFE  E85DF8FFFF        call 0x460
00000C03  83C410            add esp,byte +0x10
00000C06  83EC0C            sub esp,byte +0xc
00000C09  8D8568FFFFFF      lea eax,[ebp-0x98]
00000C0F  83C063            add eax,byte +0x63
00000C12  50                push eax
00000C13  E848F8FFFF        call 0x460
00000C18  83C410            add esp,byte +0x10
00000C1B  83EC0C            sub esp,byte +0xc
00000C1E  68C42C0000        push dword 0x2cc4
00000C23  E838F8FFFF        call 0x460
00000C28  83C410            add esp,byte +0x10
00000C2B  83EC0C            sub esp,byte +0xc
00000C2E  8D8568FFFFFF      lea eax,[ebp-0x98]
00000C34  83C06C            add eax,byte +0x6c
00000C37  50                push eax
00000C38  E823F8FFFF        call 0x460
00000C3D  83C410            add esp,byte +0x10
00000C40  83EC0C            sub esp,byte +0xc
00000C43  68CA2C0000        push dword 0x2cca
00000C48  E813F8FFFF        call 0x460
00000C4D  83C410            add esp,byte +0x10
00000C50  83EC0C            sub esp,byte +0xc
00000C53  8D8568FFFFFF      lea eax,[ebp-0x98]
00000C59  83C075            add eax,byte +0x75
00000C5C  50                push eax
00000C5D  E8FEF7FFFF        call 0x460
00000C62  83C410            add esp,byte +0x10
00000C65  83EC0C            sub esp,byte +0xc
00000C68  68D42C0000        push dword 0x2cd4
00000C6D  E8EEF7FFFF        call 0x460
00000C72  83C410            add esp,byte +0x10
00000C75  83EC0C            sub esp,byte +0xc
00000C78  8D8568FFFFFF      lea eax,[ebp-0x98]
00000C7E  83C07E            add eax,byte +0x7e
00000C81  50                push eax
00000C82  E8D9F7FFFF        call 0x460
00000C87  83C410            add esp,byte +0x10
00000C8A  83EC0C            sub esp,byte +0xc
00000C8D  68DF2C0000        push dword 0x2cdf
00000C92  E8C9F7FFFF        call 0x460
00000C97  83C410            add esp,byte +0x10
00000C9A  83EC0C            sub esp,byte +0xc
00000C9D  8D8568FFFFFF      lea eax,[ebp-0x98]
00000CA3  0587000000        add eax,0x87
00000CA8  50                push eax
00000CA9  E8B2F7FFFF        call 0x460
00000CAE  83C410            add esp,byte +0x10
00000CB1  83EC0C            sub esp,byte +0xc
00000CB4  68E52C0000        push dword 0x2ce5
00000CB9  E8A2F7FFFF        call 0x460
00000CBE  83C410            add esp,byte +0x10
00000CC1  F4                hlt
00000CC2  90                nop
00000CC3  C9                leave
00000CC4  C3                ret
00000CC5  55                push ebp
00000CC6  89E5              mov ebp,esp
00000CC8  83EC08            sub esp,byte +0x8
00000CCB  B85E1F0000        mov eax,0x1f5e
00000CD0  83EC08            sub esp,byte +0x8
00000CD3  50                push eax
00000CD4  6A00              push byte +0x0
00000CD6  E8B2FAFFFF        call 0x78d
00000CDB  83C410            add esp,byte +0x10
00000CDE  B8641F0000        mov eax,0x1f64
00000CE3  83EC08            sub esp,byte +0x8
00000CE6  50                push eax
00000CE7  6A01              push byte +0x1
00000CE9  E89FFAFFFF        call 0x78d
00000CEE  83C410            add esp,byte +0x10
00000CF1  B86A1F0000        mov eax,0x1f6a
00000CF6  83EC08            sub esp,byte +0x8
00000CF9  50                push eax
00000CFA  6A02              push byte +0x2
00000CFC  E88CFAFFFF        call 0x78d
00000D01  83C410            add esp,byte +0x10
00000D04  B8701F0000        mov eax,0x1f70
00000D09  83EC08            sub esp,byte +0x8
00000D0C  50                push eax
00000D0D  6A03              push byte +0x3
00000D0F  E879FAFFFF        call 0x78d
00000D14  83C410            add esp,byte +0x10
00000D17  B8761F0000        mov eax,0x1f76
00000D1C  83EC08            sub esp,byte +0x8
00000D1F  50                push eax
00000D20  6A04              push byte +0x4
00000D22  E866FAFFFF        call 0x78d
00000D27  83C410            add esp,byte +0x10
00000D2A  B87C1F0000        mov eax,0x1f7c
00000D2F  83EC08            sub esp,byte +0x8
00000D32  50                push eax
00000D33  6A05              push byte +0x5
00000D35  E853FAFFFF        call 0x78d
00000D3A  83C410            add esp,byte +0x10
00000D3D  B8821F0000        mov eax,0x1f82
00000D42  83EC08            sub esp,byte +0x8
00000D45  50                push eax
00000D46  6A06              push byte +0x6
00000D48  E840FAFFFF        call 0x78d
00000D4D  83C410            add esp,byte +0x10
00000D50  B8881F0000        mov eax,0x1f88
00000D55  83EC08            sub esp,byte +0x8
00000D58  50                push eax
00000D59  6A07              push byte +0x7
00000D5B  E82DFAFFFF        call 0x78d
00000D60  83C410            add esp,byte +0x10
00000D63  B88E1F0000        mov eax,0x1f8e
00000D68  83EC08            sub esp,byte +0x8
00000D6B  50                push eax
00000D6C  6A08              push byte +0x8
00000D6E  E81AFAFFFF        call 0x78d
00000D73  83C410            add esp,byte +0x10
00000D76  B8951F0000        mov eax,0x1f95
00000D7B  83EC08            sub esp,byte +0x8
00000D7E  50                push eax
00000D7F  6A09              push byte +0x9
00000D81  E807FAFFFF        call 0x78d
00000D86  83C410            add esp,byte +0x10
00000D89  B89E1F0000        mov eax,0x1f9e
00000D8E  83EC08            sub esp,byte +0x8
00000D91  50                push eax
00000D92  6A0A              push byte +0xa
00000D94  E8F4F9FFFF        call 0x78d
00000D99  83C410            add esp,byte +0x10
00000D9C  B8A51F0000        mov eax,0x1fa5
00000DA1  83EC08            sub esp,byte +0x8
00000DA4  50                push eax
00000DA5  6A0B              push byte +0xb
00000DA7  E8E1F9FFFF        call 0x78d
00000DAC  83C410            add esp,byte +0x10
00000DAF  B8AC1F0000        mov eax,0x1fac
00000DB4  83EC08            sub esp,byte +0x8
00000DB7  50                push eax
00000DB8  6A0C              push byte +0xc
00000DBA  E8CEF9FFFF        call 0x78d
00000DBF  83C410            add esp,byte +0x10
00000DC2  B8B31F0000        mov eax,0x1fb3
00000DC7  83EC08            sub esp,byte +0x8
00000DCA  50                push eax
00000DCB  6A0D              push byte +0xd
00000DCD  E8BBF9FFFF        call 0x78d
00000DD2  83C410            add esp,byte +0x10
00000DD5  B8BA1F0000        mov eax,0x1fba
00000DDA  83EC08            sub esp,byte +0x8
00000DDD  50                push eax
00000DDE  6A0E              push byte +0xe
00000DE0  E8A8F9FFFF        call 0x78d
00000DE5  83C410            add esp,byte +0x10
00000DE8  B8C11F0000        mov eax,0x1fc1
00000DED  83EC08            sub esp,byte +0x8
00000DF0  50                push eax
00000DF1  6A0F              push byte +0xf
00000DF3  E895F9FFFF        call 0x78d
00000DF8  83C410            add esp,byte +0x10
00000DFB  B8CA1F0000        mov eax,0x1fca
00000E00  83EC08            sub esp,byte +0x8
00000E03  50                push eax
00000E04  6A10              push byte +0x10
00000E06  E882F9FFFF        call 0x78d
00000E0B  83C410            add esp,byte +0x10
00000E0E  B8D31F0000        mov eax,0x1fd3
00000E13  83EC08            sub esp,byte +0x8
00000E16  50                push eax
00000E17  6A11              push byte +0x11
00000E19  E86FF9FFFF        call 0x78d
00000E1E  83C410            add esp,byte +0x10
00000E21  B8DC1F0000        mov eax,0x1fdc
00000E26  83EC08            sub esp,byte +0x8
00000E29  50                push eax
00000E2A  6A12              push byte +0x12
00000E2C  E85CF9FFFF        call 0x78d
00000E31  83C410            add esp,byte +0x10
00000E34  B8E51F0000        mov eax,0x1fe5
00000E39  83EC08            sub esp,byte +0x8
00000E3C  50                push eax
00000E3D  6A13              push byte +0x13
00000E3F  E849F9FFFF        call 0x78d
00000E44  83C410            add esp,byte +0x10
00000E47  B8EE1F0000        mov eax,0x1fee
00000E4C  83EC08            sub esp,byte +0x8
00000E4F  50                push eax
00000E50  6A14              push byte +0x14
00000E52  E836F9FFFF        call 0x78d
00000E57  83C410            add esp,byte +0x10
00000E5A  B8F71F0000        mov eax,0x1ff7
00000E5F  83EC08            sub esp,byte +0x8
00000E62  50                push eax
00000E63  6A15              push byte +0x15
00000E65  E823F9FFFF        call 0x78d
00000E6A  83C410            add esp,byte +0x10
00000E6D  B800200000        mov eax,0x2000
00000E72  83EC08            sub esp,byte +0x8
00000E75  50                push eax
00000E76  6A16              push byte +0x16
00000E78  E810F9FFFF        call 0x78d
00000E7D  83C410            add esp,byte +0x10
00000E80  B809200000        mov eax,0x2009
00000E85  83EC08            sub esp,byte +0x8
00000E88  50                push eax
00000E89  6A17              push byte +0x17
00000E8B  E8FDF8FFFF        call 0x78d
00000E90  83C410            add esp,byte +0x10
00000E93  B812200000        mov eax,0x2012
00000E98  83EC08            sub esp,byte +0x8
00000E9B  50                push eax
00000E9C  6A18              push byte +0x18
00000E9E  E8EAF8FFFF        call 0x78d
00000EA3  83C410            add esp,byte +0x10
00000EA6  B81B200000        mov eax,0x201b
00000EAB  83EC08            sub esp,byte +0x8
00000EAE  50                push eax
00000EAF  6A19              push byte +0x19
00000EB1  E8D7F8FFFF        call 0x78d
00000EB6  83C410            add esp,byte +0x10
00000EB9  B824200000        mov eax,0x2024
00000EBE  83EC08            sub esp,byte +0x8
00000EC1  50                push eax
00000EC2  6A1A              push byte +0x1a
00000EC4  E8C4F8FFFF        call 0x78d
00000EC9  83C410            add esp,byte +0x10
00000ECC  B82D200000        mov eax,0x202d
00000ED1  83EC08            sub esp,byte +0x8
00000ED4  50                push eax
00000ED5  6A1B              push byte +0x1b
00000ED7  E8B1F8FFFF        call 0x78d
00000EDC  83C410            add esp,byte +0x10
00000EDF  B836200000        mov eax,0x2036
00000EE4  83EC08            sub esp,byte +0x8
00000EE7  50                push eax
00000EE8  6A1C              push byte +0x1c
00000EEA  E89EF8FFFF        call 0x78d
00000EEF  83C410            add esp,byte +0x10
00000EF2  B83F200000        mov eax,0x203f
00000EF7  83EC08            sub esp,byte +0x8
00000EFA  50                push eax
00000EFB  6A1D              push byte +0x1d
00000EFD  E88BF8FFFF        call 0x78d
00000F02  83C410            add esp,byte +0x10
00000F05  B848200000        mov eax,0x2048
00000F0A  83EC08            sub esp,byte +0x8
00000F0D  50                push eax
00000F0E  6A1E              push byte +0x1e
00000F10  E878F8FFFF        call 0x78d
00000F15  83C410            add esp,byte +0x10
00000F18  B851200000        mov eax,0x2051
00000F1D  83EC08            sub esp,byte +0x8
00000F20  50                push eax
00000F21  6A1F              push byte +0x1f
00000F23  E865F8FFFF        call 0x78d
00000F28  83C410            add esp,byte +0x10
00000F2B  83EC08            sub esp,byte +0x8
00000F2E  6A11              push byte +0x11
00000F30  6A20              push byte +0x20
00000F32  E804F8FFFF        call 0x73b
00000F37  83C410            add esp,byte +0x10
00000F3A  83EC08            sub esp,byte +0x8
00000F3D  6A11              push byte +0x11
00000F3F  68A0000000        push dword 0xa0
00000F44  E8F2F7FFFF        call 0x73b
00000F49  83C410            add esp,byte +0x10
00000F4C  83EC08            sub esp,byte +0x8
00000F4F  6A20              push byte +0x20
00000F51  6A21              push byte +0x21
00000F53  E8E3F7FFFF        call 0x73b
00000F58  83C410            add esp,byte +0x10
00000F5B  83EC08            sub esp,byte +0x8
00000F5E  6A28              push byte +0x28
00000F60  68A1000000        push dword 0xa1
00000F65  E8D1F7FFFF        call 0x73b
00000F6A  83C410            add esp,byte +0x10
00000F6D  83EC08            sub esp,byte +0x8
00000F70  6A04              push byte +0x4
00000F72  6A21              push byte +0x21
00000F74  E8C2F7FFFF        call 0x73b
00000F79  83C410            add esp,byte +0x10
00000F7C  83EC08            sub esp,byte +0x8
00000F7F  6A02              push byte +0x2
00000F81  68A1000000        push dword 0xa1
00000F86  E8B0F7FFFF        call 0x73b
00000F8B  83C410            add esp,byte +0x10
00000F8E  83EC08            sub esp,byte +0x8
00000F91  6A01              push byte +0x1
00000F93  6A21              push byte +0x21
00000F95  E8A1F7FFFF        call 0x73b
00000F9A  83C410            add esp,byte +0x10
00000F9D  83EC08            sub esp,byte +0x8
00000FA0  6A01              push byte +0x1
00000FA2  68A1000000        push dword 0xa1
00000FA7  E88FF7FFFF        call 0x73b
00000FAC  83C410            add esp,byte +0x10
00000FAF  83EC08            sub esp,byte +0x8
00000FB2  6A00              push byte +0x0
00000FB4  6A21              push byte +0x21
00000FB6  E880F7FFFF        call 0x73b
00000FBB  83C410            add esp,byte +0x10
00000FBE  83EC08            sub esp,byte +0x8
00000FC1  6A00              push byte +0x0
00000FC3  68A1000000        push dword 0xa1
00000FC8  E86EF7FFFF        call 0x73b
00000FCD  83C410            add esp,byte +0x10
00000FD0  B85A200000        mov eax,0x205a
00000FD5  83EC08            sub esp,byte +0x8
00000FD8  50                push eax
00000FD9  6A20              push byte +0x20
00000FDB  E8ADF7FFFF        call 0x78d
00000FE0  83C410            add esp,byte +0x10
00000FE3  B863200000        mov eax,0x2063
00000FE8  83EC08            sub esp,byte +0x8
00000FEB  50                push eax
00000FEC  6A21              push byte +0x21
00000FEE  E89AF7FFFF        call 0x78d
00000FF3  83C410            add esp,byte +0x10
00000FF6  B86C200000        mov eax,0x206c
00000FFB  83EC08            sub esp,byte +0x8
00000FFE  50                push eax
00000FFF  6A22              push byte +0x22
00001001  E887F7FFFF        call 0x78d
00001006  83C410            add esp,byte +0x10
00001009  B875200000        mov eax,0x2075
0000100E  83EC08            sub esp,byte +0x8
00001011  50                push eax
00001012  6A23              push byte +0x23
00001014  E874F7FFFF        call 0x78d
00001019  83C410            add esp,byte +0x10
0000101C  B87E200000        mov eax,0x207e
00001021  83EC08            sub esp,byte +0x8
00001024  50                push eax
00001025  6A24              push byte +0x24
00001027  E861F7FFFF        call 0x78d
0000102C  83C410            add esp,byte +0x10
0000102F  B887200000        mov eax,0x2087
00001034  83EC08            sub esp,byte +0x8
00001037  50                push eax
00001038  6A25              push byte +0x25
0000103A  E84EF7FFFF        call 0x78d
0000103F  83C410            add esp,byte +0x10
00001042  B890200000        mov eax,0x2090
00001047  83EC08            sub esp,byte +0x8
0000104A  50                push eax
0000104B  6A26              push byte +0x26
0000104D  E83BF7FFFF        call 0x78d
00001052  83C410            add esp,byte +0x10
00001055  B899200000        mov eax,0x2099
0000105A  83EC08            sub esp,byte +0x8
0000105D  50                push eax
0000105E  6A27              push byte +0x27
00001060  E828F7FFFF        call 0x78d
00001065  83C410            add esp,byte +0x10
00001068  B8A2200000        mov eax,0x20a2
0000106D  83EC08            sub esp,byte +0x8
00001070  50                push eax
00001071  6A28              push byte +0x28
00001073  E815F7FFFF        call 0x78d
00001078  83C410            add esp,byte +0x10
0000107B  B8AB200000        mov eax,0x20ab
00001080  83EC08            sub esp,byte +0x8
00001083  50                push eax
00001084  6A29              push byte +0x29
00001086  E802F7FFFF        call 0x78d
0000108B  83C410            add esp,byte +0x10
0000108E  B8B4200000        mov eax,0x20b4
00001093  83EC08            sub esp,byte +0x8
00001096  50                push eax
00001097  6A2A              push byte +0x2a
00001099  E8EFF6FFFF        call 0x78d
0000109E  83C410            add esp,byte +0x10
000010A1  B8BD200000        mov eax,0x20bd
000010A6  83EC08            sub esp,byte +0x8
000010A9  50                push eax
000010AA  6A2B              push byte +0x2b
000010AC  E8DCF6FFFF        call 0x78d
000010B1  83C410            add esp,byte +0x10
000010B4  B8C6200000        mov eax,0x20c6
000010B9  83EC08            sub esp,byte +0x8
000010BC  50                push eax
000010BD  6A2C              push byte +0x2c
000010BF  E8C9F6FFFF        call 0x78d
000010C4  83C410            add esp,byte +0x10
000010C7  B8CF200000        mov eax,0x20cf
000010CC  83EC08            sub esp,byte +0x8
000010CF  50                push eax
000010D0  6A2D              push byte +0x2d
000010D2  E8B6F6FFFF        call 0x78d
000010D7  83C410            add esp,byte +0x10
000010DA  B8D8200000        mov eax,0x20d8
000010DF  83EC08            sub esp,byte +0x8
000010E2  50                push eax
000010E3  6A2E              push byte +0x2e
000010E5  E8A3F6FFFF        call 0x78d
000010EA  83C410            add esp,byte +0x10
000010ED  B8E1200000        mov eax,0x20e1
000010F2  83EC08            sub esp,byte +0x8
000010F5  50                push eax
000010F6  6A2F              push byte +0x2f
000010F8  E890F6FFFF        call 0x78d
000010FD  83C410            add esp,byte +0x10
00001100  E8D4F6FFFF        call 0x7d9
00001105  90                nop
00001106  C9                leave
00001107  C3                ret
00001108  6690              xchg ax,ax
0000110A  6690              xchg ax,ax
0000110C  6690              xchg ax,ax
0000110E  6690              xchg ax,ax
00001110  60                pusha
00001111  668CD8            mov ax,ds
00001114  50                push eax
00001115  66B81000          mov ax,0x10
00001119  8ED8              mov ds,eax
0000111B  8EC0              mov es,eax
0000111D  8EE0              mov fs,eax
0000111F  8EE8              mov gs,eax
00001121  54                push esp
00001122  FC                cld
00001123  E849F7FFFF        call 0x871
00001128  58                pop eax
00001129  58                pop eax
0000112A  8ED8              mov ds,eax
0000112C  8EC0              mov es,eax
0000112E  8EE0              mov fs,eax
00001130  8EE8              mov gs,eax
00001132  61                popa
00001133  83C408            add esp,byte +0x8
00001136  CF                iret
00001137  60                pusha
00001138  668CD8            mov ax,ds
0000113B  50                push eax
0000113C  66B81000          mov ax,0x10
00001140  8ED8              mov ds,eax
00001142  8EC0              mov es,eax
00001144  8EE0              mov fs,eax
00001146  8EE8              mov gs,eax
00001148  54                push esp
00001149  FC                cld
0000114A  E8BEF6FFFF        call 0x80d
0000114F  5B                pop ebx
00001150  5B                pop ebx
00001151  8EDB              mov ds,ebx
00001153  8EC3              mov es,ebx
00001155  8EE3              mov fs,ebx
00001157  8EEB              mov gs,ebx
00001159  61                popa
0000115A  83C408            add esp,byte +0x8
0000115D  CF                iret
0000115E  6A00              push byte +0x0
00001160  6A00              push byte +0x0
00001162  EBAC              jmp short 0x1110
00001164  6A00              push byte +0x0
00001166  6A01              push byte +0x1
00001168  EBA6              jmp short 0x1110
0000116A  6A00              push byte +0x0
0000116C  6A02              push byte +0x2
0000116E  EBA0              jmp short 0x1110
00001170  6A00              push byte +0x0
00001172  6A03              push byte +0x3
00001174  EB9A              jmp short 0x1110
00001176  6A00              push byte +0x0
00001178  6A04              push byte +0x4
0000117A  EB94              jmp short 0x1110
0000117C  6A00              push byte +0x0
0000117E  6A05              push byte +0x5
00001180  EB8E              jmp short 0x1110
00001182  6A00              push byte +0x0
00001184  6A06              push byte +0x6
00001186  EB88              jmp short 0x1110
00001188  6A00              push byte +0x0
0000118A  6A07              push byte +0x7
0000118C  EB82              jmp short 0x1110
0000118E  6A08              push byte +0x8
00001190  E97BFFFFFF        jmp 0x1110
00001195  6A00              push byte +0x0
00001197  6A09              push byte +0x9
00001199  E972FFFFFF        jmp 0x1110
0000119E  6A0A              push byte +0xa
000011A0  E96BFFFFFF        jmp 0x1110
000011A5  6A0B              push byte +0xb
000011A7  E964FFFFFF        jmp 0x1110
000011AC  6A0C              push byte +0xc
000011AE  E95DFFFFFF        jmp 0x1110
000011B3  6A0D              push byte +0xd
000011B5  E956FFFFFF        jmp 0x1110
000011BA  6A0E              push byte +0xe
000011BC  E94FFFFFFF        jmp 0x1110
000011C1  6A00              push byte +0x0
000011C3  6A0F              push byte +0xf
000011C5  E946FFFFFF        jmp 0x1110
000011CA  6A00              push byte +0x0
000011CC  6A10              push byte +0x10
000011CE  E93DFFFFFF        jmp 0x1110
000011D3  6A00              push byte +0x0
000011D5  6A11              push byte +0x11
000011D7  E934FFFFFF        jmp 0x1110
000011DC  6A00              push byte +0x0
000011DE  6A12              push byte +0x12
000011E0  E92BFFFFFF        jmp 0x1110
000011E5  6A00              push byte +0x0
000011E7  6A13              push byte +0x13
000011E9  E922FFFFFF        jmp 0x1110
000011EE  6A00              push byte +0x0
000011F0  6A14              push byte +0x14
000011F2  E919FFFFFF        jmp 0x1110
000011F7  6A00              push byte +0x0
000011F9  6A15              push byte +0x15
000011FB  E910FFFFFF        jmp 0x1110
00001200  6A00              push byte +0x0
00001202  6A16              push byte +0x16
00001204  E907FFFFFF        jmp 0x1110
00001209  6A00              push byte +0x0
0000120B  6A17              push byte +0x17
0000120D  E9FEFEFFFF        jmp 0x1110
00001212  6A00              push byte +0x0
00001214  6A18              push byte +0x18
00001216  E9F5FEFFFF        jmp 0x1110
0000121B  6A00              push byte +0x0
0000121D  6A19              push byte +0x19
0000121F  E9ECFEFFFF        jmp 0x1110
00001224  6A00              push byte +0x0
00001226  6A1A              push byte +0x1a
00001228  E9E3FEFFFF        jmp 0x1110
0000122D  6A00              push byte +0x0
0000122F  6A1B              push byte +0x1b
00001231  E9DAFEFFFF        jmp 0x1110
00001236  6A00              push byte +0x0
00001238  6A1C              push byte +0x1c
0000123A  E9D1FEFFFF        jmp 0x1110
0000123F  6A00              push byte +0x0
00001241  6A1D              push byte +0x1d
00001243  E9C8FEFFFF        jmp 0x1110
00001248  6A00              push byte +0x0
0000124A  6A1E              push byte +0x1e
0000124C  E9BFFEFFFF        jmp 0x1110
00001251  6A00              push byte +0x0
00001253  6A1F              push byte +0x1f
00001255  E9B6FEFFFF        jmp 0x1110
0000125A  6A00              push byte +0x0
0000125C  6A20              push byte +0x20
0000125E  E9D4FEFFFF        jmp 0x1137
00001263  6A01              push byte +0x1
00001265  6A21              push byte +0x21
00001267  E9CBFEFFFF        jmp 0x1137
0000126C  6A02              push byte +0x2
0000126E  6A22              push byte +0x22
00001270  E9C2FEFFFF        jmp 0x1137
00001275  6A03              push byte +0x3
00001277  6A23              push byte +0x23
00001279  E9B9FEFFFF        jmp 0x1137
0000127E  6A04              push byte +0x4
00001280  6A24              push byte +0x24
00001282  E9B0FEFFFF        jmp 0x1137
00001287  6A05              push byte +0x5
00001289  6A25              push byte +0x25
0000128B  E9A7FEFFFF        jmp 0x1137
00001290  6A06              push byte +0x6
00001292  6A26              push byte +0x26
00001294  E99EFEFFFF        jmp 0x1137
00001299  6A07              push byte +0x7
0000129B  6A27              push byte +0x27
0000129D  E995FEFFFF        jmp 0x1137
000012A2  6A08              push byte +0x8
000012A4  6A28              push byte +0x28
000012A6  E98CFEFFFF        jmp 0x1137
000012AB  6A09              push byte +0x9
000012AD  6A29              push byte +0x29
000012AF  E983FEFFFF        jmp 0x1137
000012B4  6A0A              push byte +0xa
000012B6  6A2A              push byte +0x2a
000012B8  E97AFEFFFF        jmp 0x1137
000012BD  6A0B              push byte +0xb
000012BF  6A2B              push byte +0x2b
000012C1  E971FEFFFF        jmp 0x1137
000012C6  6A0C              push byte +0xc
000012C8  6A2C              push byte +0x2c
000012CA  E968FEFFFF        jmp 0x1137
000012CF  6A0D              push byte +0xd
000012D1  6A2D              push byte +0x2d
000012D3  E95FFEFFFF        jmp 0x1137
000012D8  6A0E              push byte +0xe
000012DA  6A2E              push byte +0x2e
000012DC  E956FEFFFF        jmp 0x1137
000012E1  6A0F              push byte +0xf
000012E3  6A2F              push byte +0x2f
000012E5  E94DFEFFFF        jmp 0x1137
000012EA  55                push ebp
000012EB  89E5              mov ebp,esp
000012ED  83EC10            sub esp,byte +0x10
000012F0  C745FC00000000    mov dword [ebp-0x4],0x0
000012F7  EB04              jmp short 0x12fd
000012F9  8345FC01          add dword [ebp-0x4],byte +0x1
000012FD  8B55FC            mov edx,[ebp-0x4]
00001300  8B4508            mov eax,[ebp+0x8]
00001303  01D0              add eax,edx
00001305  0FB600            movzx eax,byte [eax]
00001308  84C0              test al,al
0000130A  75ED              jnz 0x12f9
0000130C  8B45FC            mov eax,[ebp-0x4]
0000130F  C9                leave
00001310  C3                ret
00001311  55                push ebp
00001312  89E5              mov ebp,esp
00001314  83EC14            sub esp,byte +0x14
00001317  8B450C            mov eax,[ebp+0xc]
0000131A  8845EC            mov [ebp-0x14],al
0000131D  FF7508            push dword [ebp+0x8]
00001320  E8C5FFFFFF        call 0x12ea
00001325  83C404            add esp,byte +0x4
00001328  8945FC            mov [ebp-0x4],eax
0000132B  8B55FC            mov edx,[ebp-0x4]
0000132E  8B4508            mov eax,[ebp+0x8]
00001331  01C2              add edx,eax
00001333  0FB645EC          movzx eax,byte [ebp-0x14]
00001337  8802              mov [edx],al
00001339  8B45FC            mov eax,[ebp-0x4]
0000133C  8D5001            lea edx,[eax+0x1]
0000133F  8B4508            mov eax,[ebp+0x8]
00001342  01D0              add eax,edx
00001344  C60000            mov byte [eax],0x0
00001347  90                nop
00001348  C9                leave
00001349  C3                ret
0000134A  55                push ebp
0000134B  89E5              mov ebp,esp
0000134D  8B4508            mov eax,[ebp+0x8]
00001350  C60000            mov byte [eax],0x0
00001353  90                nop
00001354  5D                pop ebp
00001355  C3                ret
00001356  55                push ebp
00001357  89E5              mov ebp,esp
00001359  EB08              jmp short 0x1363
0000135B  83450801          add dword [ebp+0x8],byte +0x1
0000135F  83450C01          add dword [ebp+0xc],byte +0x1
00001363  8B4508            mov eax,[ebp+0x8]
00001366  0FB600            movzx eax,byte [eax]
00001369  84C0              test al,al
0000136B  7410              jz 0x137d
0000136D  8B4508            mov eax,[ebp+0x8]
00001370  0FB610            movzx edx,byte [eax]
00001373  8B450C            mov eax,[ebp+0xc]
00001376  0FB600            movzx eax,byte [eax]
00001379  38C2              cmp dl,al
0000137B  74DE              jz 0x135b
0000137D  8B4508            mov eax,[ebp+0x8]
00001380  0FB600            movzx eax,byte [eax]
00001383  0FBED0            movsx edx,al
00001386  8B450C            mov eax,[ebp+0xc]
00001389  0FB600            movzx eax,byte [eax]
0000138C  0FBEC0            movsx eax,al
0000138F  29C2              sub edx,eax
00001391  89D0              mov eax,edx
00001393  5D                pop ebp
00001394  C3                ret
00001395  55                push ebp
00001396  89E5              mov ebp,esp
00001398  83EC10            sub esp,byte +0x10
0000139B  C745FC00000000    mov dword [ebp-0x4],0x0
000013A2  EB41              jmp short 0x13e5
000013A4  8B55FC            mov edx,[ebp-0x4]
000013A7  8B4508            mov eax,[ebp+0x8]
000013AA  01D0              add eax,edx
000013AC  0FB600            movzx eax,byte [eax]
000013AF  8845FB            mov [ebp-0x5],al
000013B2  8B450C            mov eax,[ebp+0xc]
000013B5  2B45FC            sub eax,[ebp-0x4]
000013B8  8D50FF            lea edx,[eax-0x1]
000013BB  8B4508            mov eax,[ebp+0x8]
000013BE  01D0              add eax,edx
000013C0  8B4DFC            mov ecx,[ebp-0x4]
000013C3  8B5508            mov edx,[ebp+0x8]
000013C6  01CA              add edx,ecx
000013C8  0FB600            movzx eax,byte [eax]
000013CB  8802              mov [edx],al
000013CD  8B450C            mov eax,[ebp+0xc]
000013D0  2B45FC            sub eax,[ebp-0x4]
000013D3  8D50FF            lea edx,[eax-0x1]
000013D6  8B4508            mov eax,[ebp+0x8]
000013D9  01C2              add edx,eax
000013DB  0FB645FB          movzx eax,byte [ebp-0x5]
000013DF  8802              mov [edx],al
000013E1  8345FC01          add dword [ebp-0x4],byte +0x1
000013E5  8B450C            mov eax,[ebp+0xc]
000013E8  89C2              mov edx,eax
000013EA  C1EA1F            shr edx,byte 0x1f
000013ED  01D0              add eax,edx
000013EF  D1F8              sar eax,1
000013F1  3945FC            cmp [ebp-0x4],eax
000013F4  7CAE              jl 0x13a4
000013F6  90                nop
000013F7  C9                leave
000013F8  C3                ret
000013F9  55                push ebp
000013FA  89E5              mov ebp,esp
000013FC  83EC10            sub esp,byte +0x10
000013FF  C745FC00000000    mov dword [ebp-0x4],0x0
00001406  EB27              jmp short 0x142f
00001408  8B45FC            mov eax,[ebp-0x4]
0000140B  C1E002            shl eax,byte 0x2
0000140E  8B5508            mov edx,[ebp+0x8]
00001411  89C1              mov ecx,eax
00001413  D3EA              shr edx,cl
00001415  89D0              mov eax,edx
00001417  83E00F            and eax,byte +0xf
0000141A  8B4DFC            mov ecx,[ebp-0x4]
0000141D  8B550C            mov edx,[ebp+0xc]
00001420  01CA              add edx,ecx
00001422  0FB680E82C0000    movzx eax,byte [eax+0x2ce8]
00001429  8802              mov [edx],al
0000142B  8345FC01          add dword [ebp-0x4],byte +0x1
0000142F  837DFC07          cmp dword [ebp-0x4],byte +0x7
00001433  7ED3              jng 0x1408
00001435  8B4508            mov eax,[ebp+0x8]
00001438  8D50FF            lea edx,[eax-0x1]
0000143B  8B450C            mov eax,[ebp+0xc]
0000143E  01D0              add eax,edx
00001440  C60000            mov byte [eax],0x0
00001443  FF750C            push dword [ebp+0xc]
00001446  E89FFEFFFF        call 0x12ea
0000144B  83C404            add esp,byte +0x4
0000144E  83E801            sub eax,byte +0x1
00001451  50                push eax
00001452  FF750C            push dword [ebp+0xc]
00001455  E83BFFFFFF        call 0x1395
0000145A  83C408            add esp,byte +0x8
0000145D  90                nop
0000145E  C9                leave
0000145F  C3                ret
00001460  55                push ebp
00001461  89E5              mov ebp,esp
00001463  83EC08            sub esp,byte +0x8
00001466  E89D000000        call 0x1508
0000146B  90                nop
0000146C  C9                leave
0000146D  C3                ret
0000146E  55                push ebp
0000146F  89E5              mov ebp,esp
00001471  83EC08            sub esp,byte +0x8
00001474  83EC08            sub esp,byte +0x8
00001477  68F82C0000        push dword 0x2cf8
0000147C  FF7508            push dword [ebp+0x8]
0000147F  E8D2FEFFFF        call 0x1356
00001484  83C410            add esp,byte +0x10
00001487  85C0              test eax,eax
00001489  7507              jnz 0x1492
0000148B  E8D0FFFFFF        call 0x1460
00001490  EB1E              jmp short 0x14b0
00001492  83EC0C            sub esp,byte +0xc
00001495  68052D0000        push dword 0x2d05
0000149A  E8C1EFFFFF        call 0x460
0000149F  83C410            add esp,byte +0x10
000014A2  83EC0C            sub esp,byte +0xc
000014A5  FF7508            push dword [ebp+0x8]
000014A8  E8B3EFFFFF        call 0x460
000014AD  83C410            add esp,byte +0x10
000014B0  83EC0C            sub esp,byte +0xc
000014B3  FF7508            push dword [ebp+0x8]
000014B6  E88FFEFFFF        call 0x134a
000014BB  83C410            add esp,byte +0x10
000014BE  83EC0C            sub esp,byte +0xc
000014C1  68172D0000        push dword 0x2d17
000014C6  E895EFFFFF        call 0x460
000014CB  83C410            add esp,byte +0x10
000014CE  90                nop
000014CF  C9                leave
000014D0  C3                ret
000014D1  6690              xchg ax,ax
000014D3  6690              xchg ax,ax
000014D5  6690              xchg ax,ax
000014D7  6690              xchg ax,ax
000014D9  6690              xchg ax,ax
000014DB  6690              xchg ax,ax
000014DD  6690              xchg ax,ax
000014DF  90                nop
000014E0  0000              add [eax],al
000014E2  0000              add [eax],al
000014E4  0000              add [eax],al
000014E6  0000              add [eax],al
000014E8  FF                db 0xff
000014E9  FF00              inc dword [eax]
000014EB  0000              add [eax],al
000014ED  9A0F00FFFF0000    call 0x0:0xffff000f
000014F4  00920F001800      add [edx+0x18000f],dl
000014FA  E022              loopne 0x151e
000014FC  0000              add [eax],al
000014FE  FF03              inc dword [ebx]
00001500  0000              add [eax],al
00001502  0000              add [eax],al
00001504  0000              add [eax],al
00001506  0000              add [eax],al
00001508  FA                cli
00001509  66B81000          mov ax,0x10
0000150D  0000              add [eax],al
0000150F  8ED8              mov ds,eax
00001511  8EC0              mov es,eax
00001513  8EE0              mov fs,eax
00001515  8EE8              mov gs,eax
00001517  8ED0              mov ss,eax
00001519  0F20C0            mov eax,cr0
0000151C  66A304236625      mov [0x25662304],ax
00001522  FE                db 0xfe
00001523  FF                db 0xff
00001524  FF                db 0xff
00001525  7F0F              jg 0x1536
00001527  22C0              and al,al
00001529  90                nop
0000152A  EA2F230000BC00    jmp 0xbc:0x232f
00001531  80B800008ED88E    cmp byte [eax-0x27720000],0x8e
00001538  C08EE08EE88ED0    ror byte [esi-0x71177120],byte 0xd0
0000153F  0F011E            lidt [esi]
00001542  FE                db 0xfe
00001543  22FB              and bh,bl
00001545  EBFE              jmp short 0x1545
00001547  00446976          add [ecx+ebp*2+0x76],al
0000154B  6973696F6E2042    imul esi,[ebx+0x69],dword 0x42206e6f
00001552  7920              jns 0x1574
00001554  5A                pop edx
00001555  65726F            gs jc 0x15c7
00001558  00446562          add [ebp+0x62],al
0000155C  7567              jnz 0x15c5
0000155E  004E6F            add [esi+0x6f],cl
00001561  6E                outsb
00001562  204D61            and [ebp+0x61],cl
00001565  736B              jnc 0x15d2
00001567  61                popa
00001568  626C6520          bound ebp,[ebp+0x20]
0000156C  49                dec ecx
0000156D  6E                outsb
0000156E  7465              jz 0x15d5
00001570  7272              jc 0x15e4
00001572  7570              jnz 0x15e4
00001574  7400              jz 0x1576
00001576  42                inc edx
00001577  7265              jc 0x15de
00001579  61                popa
0000157A  6B706F69          imul esi,[eax+0x6f],byte +0x69
0000157E  6E                outsb
0000157F  7400              jz 0x1581
00001581  49                dec ecx
00001582  6E                outsb
00001583  746F              jz 0x15f4
00001585  20446574          and [ebp+0x74],al
00001589  6563746564        arpl [gs:ebp+0x64],si
0000158E  204F76            and [edi+0x76],cl
00001591  657266            gs jc 0x15fa
00001594  6C                insb
00001595  6F                outsd
00001596  7700              ja 0x1598
00001598  4F                dec edi
00001599  7574              jnz 0x160f
0000159B  206F66            and [edi+0x66],ch
0000159E  20426F            and [edx+0x6f],al
000015A1  756E              jnz 0x1611
000015A3  647300            fs jnc 0x15a6
000015A6  49                dec ecx
000015A7  6E                outsb
000015A8  7661              jna 0x160b
000015AA  6C                insb
000015AB  6964204F70636F64  imul esp,[eax+0x4f],dword 0x646f6370
000015B3  65004E6F          add [gs:esi+0x6f],cl
000015B7  20436F            and [ebx+0x6f],al
000015BA  7072              jo 0x162e
000015BC  6F                outsd
000015BD  636573            arpl [ebp+0x73],sp
000015C0  736F              jnc 0x1631
000015C2  7200              jc 0x15c4
000015C4  44                inc esp
000015C5  6F                outsd
000015C6  7562              jnz 0x162a
000015C8  6C                insb
000015C9  65204661          and [gs:esi+0x61],al
000015CD  756C              jnz 0x163b
000015CF  7400              jz 0x15d1
000015D1  43                inc ebx
000015D2  6F                outsd
000015D3  7072              jo 0x1647
000015D5  6F                outsd
000015D6  636573            arpl [ebp+0x73],sp
000015D9  736F              jnc 0x164a
000015DB  7220              jc 0x15fd
000015DD  53                push ebx
000015DE  65676D            gs a16 insd
000015E1  656E              gs outsb
000015E3  7420              jz 0x1605
000015E5  4F                dec edi
000015E6  7665              jna 0x164d
000015E8  7272              jc 0x165c
000015EA  756E              jnz 0x165a
000015EC  004261            add [edx+0x61],al
000015EF  6420545353        and [fs:ebx+edx*2+0x53],dl
000015F4  005365            add [ebx+0x65],dl
000015F7  676D              a16 insd
000015F9  656E              gs outsb
000015FB  7420              jz 0x161d
000015FD  4E                dec esi
000015FE  6F                outsd
000015FF  7420              jz 0x1621
00001601  50                push eax
00001602  7265              jc 0x1669
00001604  7365              jnc 0x166b
00001606  6E                outsb
00001607  7400              jz 0x1609
00001609  53                push ebx
0000160A  7461              jz 0x166d
0000160C  636B20            arpl [ebx+0x20],bp
0000160F  46                inc esi
00001610  61                popa
00001611  756C              jnz 0x167f
00001613  7400              jz 0x1615
00001615  47                inc edi
00001616  656E              gs outsb
00001618  657261            gs jc 0x167c
0000161B  6C                insb
0000161C  205072            and [eax+0x72],dl
0000161F  6F                outsd
00001620  7465              jz 0x1687
00001622  6374696F          arpl [ecx+ebp*2+0x6f],si
00001626  6E                outsb
00001627  204661            and [esi+0x61],al
0000162A  756C              jnz 0x1698
0000162C  7400              jz 0x162e
0000162E  50                push eax
0000162F  61                popa
00001630  6765204661        and [gs:bp+0x61],al
00001635  756C              jnz 0x16a3
00001637  7400              jz 0x1639
00001639  55                push ebp
0000163A  6E                outsb
0000163B  6B6E6F77          imul ebp,[esi+0x6f],byte +0x77
0000163F  6E                outsb
00001640  20496E            and [ecx+0x6e],cl
00001643  7465              jz 0x16aa
00001645  7272              jc 0x16b9
00001647  7570              jnz 0x16b9
00001649  7400              jz 0x164b
0000164B  43                inc ebx
0000164C  6F                outsd
0000164D  7072              jo 0x16c1
0000164F  6F                outsd
00001650  636573            arpl [ebp+0x73],sp
00001653  736F              jnc 0x16c4
00001655  7220              jc 0x1677
00001657  46                inc esi
00001658  61                popa
00001659  756C              jnz 0x16c7
0000165B  7400              jz 0x165d
0000165D  41                inc ecx
0000165E  6C                insb
0000165F  69676E6D656E74    imul esp,[edi+0x6e],dword 0x746e656d
00001666  204368            and [ebx+0x68],al
00001669  65636B00          arpl [gs:ebx+0x0],bp
0000166D  4D                dec ebp
0000166E  61                popa
0000166F  636869            arpl [eax+0x69],bp
00001672  6E                outsb
00001673  65204368          and [gs:ebx+0x68],al
00001677  65636B00          arpl [gs:ebx+0x0],bp
0000167B  52                push edx
0000167C  657365            gs jnc 0x16e4
0000167F  7276              jc 0x16f7
00001681  656400496E        add [fs:ecx+0x6e],cl
00001686  7374              jnc 0x16fc
00001688  61                popa
00001689  6C                insb
0000168A  6C                insb
0000168B  696E6720495352    imul ebp,[esi+0x67],dword 0x52534920
00001692  732E              jnc 0x16c2
00001694  2E2E0A00          or al,[cs:eax]
00001698  49                dec ecx
00001699  53                push ebx
0000169A  52                push edx
0000169B  7320              jnc 0x16bd
0000169D  696E7374616C6C    imul ebp,[esi+0x73],dword 0x6c6c6174
000016A4  65642E0A00        or al,[cs:eax]
000016A9  41                inc ecx
000016AA  63746976          arpl [ecx+ebp*2+0x76],si
000016AE  61                popa
000016AF  7469              jz 0x171a
000016B1  6E                outsb
000016B2  6720496E          and [bx+di+0x6e],cl
000016B6  7465              jz 0x171d
000016B8  7272              jc 0x172c
000016BA  7570              jnz 0x172c
000016BC  7473              jz 0x1731
000016BE  2E2E2E0A00        or al,[cs:eax]
000016C3  49                dec ecx
000016C4  6E                outsb
000016C5  7465              jz 0x172c
000016C7  7272              jc 0x173b
000016C9  7570              jnz 0x173b
000016CB  7473              jz 0x1740
000016CD  206163            and [ecx+0x63],ah
000016D0  7469              jz 0x173b
000016D2  7661              jna 0x1735
000016D4  7465              jz 0x173b
000016D6  642E0A00          or al,[cs:eax]
000016DA  49                dec ecx
000016DB  6E                outsb
000016DC  697469616C697369  imul esi,[ecx+ebp*2+0x61],dword 0x6973696c
000016E4  6E                outsb
000016E5  67206B65          and [bp+di+0x65],ch
000016E9  7962              jns 0x174d
000016EB  6F                outsd
000016EC  61                popa
000016ED  7264              jc 0x1753
000016EF  2E2E2E0A00        or al,[cs:eax]
000016F4  4B                dec ebx
000016F5  657962            gs jns 0x175a
000016F8  6F                outsd
000016F9  61                popa
000016FA  7264              jc 0x1760
000016FC  20696E            and [ecx+0x6e],ch
000016FF  697469616C697365  imul esi,[ecx+ebp*2+0x61],dword 0x6573696c
00001707  642E0A00          or al,[cs:eax]
0000170B  000A              add [edx],cl
0000170D  57                push edi
0000170E  656C              gs insb
00001710  636F6D            arpl [edi+0x6d],bp
00001713  6520746F20        and [gs:edi+ebp*2+0x20],dh
00001718  6D                insd
00001719  7920              jns 0x173b
0000171B  28546563          sub [ebp+0x63],dl
0000171F  6869654865        push dword 0x65486569
00001724  6C                insb
00001725  7065              jo 0x178c
00001727  7227              jc 0x1750
00001729  7329              jnc 0x1754
0000172B  206F70            and [edi+0x70],ch
0000172E  657261            gs jc 0x1792
00001731  7469              jz 0x179c
00001733  6E                outsb
00001734  67207379          and [bp+di+0x79],dh
00001738  7374              jnc 0x17ae
0000173A  656D              gs insd
0000173C  210A              and [edx],ecx
0000173E  55                push ebp
0000173F  7365              jnc 0x17a6
00001741  20746865          and [eax+ebp*2+0x65],dh
00001745  206865            and [eax+0x65],ch
00001748  6C                insb
00001749  7020              jo 0x176b
0000174B  636F6D            arpl [edi+0x6d],bp
0000174E  6D                insd
0000174F  61                popa
00001750  6E                outsb
00001751  6420666F          and [fs:esi+0x6f],ah
00001755  7220              jc 0x1777
00001757  68656C702E        push dword 0x2e706c65
0000175C  0A3E              or bh,[esi]
0000175E  00446976          add [ecx+ebp*2+0x76],al
00001762  6973696F6E2042    imul esi,[ebx+0x69],dword 0x42206e6f
00001769  7920              jns 0x178b
0000176B  5A                pop edx
0000176C  65726F            gs jc 0x17de
0000176F  00446562          add [ebp+0x62],al
00001773  7567              jnz 0x17dc
00001775  004E6F            add [esi+0x6f],cl
00001778  6E                outsb
00001779  204D61            and [ebp+0x61],cl
0000177C  736B              jnc 0x17e9
0000177E  61                popa
0000177F  626C6520          bound ebp,[ebp+0x20]
00001783  49                dec ecx
00001784  6E                outsb
00001785  7465              jz 0x17ec
00001787  7272              jc 0x17fb
00001789  7570              jnz 0x17fb
0000178B  7400              jz 0x178d
0000178D  42                inc edx
0000178E  7265              jc 0x17f5
00001790  61                popa
00001791  6B706F69          imul esi,[eax+0x6f],byte +0x69
00001795  6E                outsb
00001796  7400              jz 0x1798
00001798  49                dec ecx
00001799  6E                outsb
0000179A  746F              jz 0x180b
0000179C  20446574          and [ebp+0x74],al
000017A0  6563746564        arpl [gs:ebp+0x64],si
000017A5  204F76            and [edi+0x76],cl
000017A8  657266            gs jc 0x1811
000017AB  6C                insb
000017AC  6F                outsd
000017AD  7700              ja 0x17af
000017AF  4F                dec edi
000017B0  7574              jnz 0x1826
000017B2  206F66            and [edi+0x66],ch
000017B5  20426F            and [edx+0x6f],al
000017B8  756E              jnz 0x1828
000017BA  647300            fs jnc 0x17bd
000017BD  49                dec ecx
000017BE  6E                outsb
000017BF  7661              jna 0x1822
000017C1  6C                insb
000017C2  6964204F70636F64  imul esp,[eax+0x4f],dword 0x646f6370
000017CA  65004E6F          add [gs:esi+0x6f],cl
000017CE  20436F            and [ebx+0x6f],al
000017D1  7072              jo 0x1845
000017D3  6F                outsd
000017D4  636573            arpl [ebp+0x73],sp
000017D7  736F              jnc 0x1848
000017D9  7200              jc 0x17db
000017DB  44                inc esp
000017DC  6F                outsd
000017DD  7562              jnz 0x1841
000017DF  6C                insb
000017E0  65204661          and [gs:esi+0x61],al
000017E4  756C              jnz 0x1852
000017E6  7400              jz 0x17e8
000017E8  43                inc ebx
000017E9  6F                outsd
000017EA  7072              jo 0x185e
000017EC  6F                outsd
000017ED  636573            arpl [ebp+0x73],sp
000017F0  736F              jnc 0x1861
000017F2  7220              jc 0x1814
000017F4  53                push ebx
000017F5  65676D            gs a16 insd
000017F8  656E              gs outsb
000017FA  7420              jz 0x181c
000017FC  4F                dec edi
000017FD  7665              jna 0x1864
000017FF  7272              jc 0x1873
00001801  756E              jnz 0x1871
00001803  004261            add [edx+0x61],al
00001806  6420545353        and [fs:ebx+edx*2+0x53],dl
0000180B  005365            add [ebx+0x65],dl
0000180E  676D              a16 insd
00001810  656E              gs outsb
00001812  7420              jz 0x1834
00001814  4E                dec esi
00001815  6F                outsd
00001816  7420              jz 0x1838
00001818  50                push eax
00001819  7265              jc 0x1880
0000181B  7365              jnc 0x1882
0000181D  6E                outsb
0000181E  7400              jz 0x1820
00001820  53                push ebx
00001821  7461              jz 0x1884
00001823  636B20            arpl [ebx+0x20],bp
00001826  46                inc esi
00001827  61                popa
00001828  756C              jnz 0x1896
0000182A  7400              jz 0x182c
0000182C  47                inc edi
0000182D  656E              gs outsb
0000182F  657261            gs jc 0x1893
00001832  6C                insb
00001833  205072            and [eax+0x72],dl
00001836  6F                outsd
00001837  7465              jz 0x189e
00001839  6374696F          arpl [ecx+ebp*2+0x6f],si
0000183D  6E                outsb
0000183E  204661            and [esi+0x61],al
00001841  756C              jnz 0x18af
00001843  7400              jz 0x1845
00001845  50                push eax
00001846  61                popa
00001847  6765204661        and [gs:bp+0x61],al
0000184C  756C              jnz 0x18ba
0000184E  7400              jz 0x1850
00001850  55                push ebp
00001851  6E                outsb
00001852  6B6E6F77          imul ebp,[esi+0x6f],byte +0x77
00001856  6E                outsb
00001857  20496E            and [ecx+0x6e],cl
0000185A  7465              jz 0x18c1
0000185C  7272              jc 0x18d0
0000185E  7570              jnz 0x18d0
00001860  7400              jz 0x1862
00001862  43                inc ebx
00001863  6F                outsd
00001864  7072              jo 0x18d8
00001866  6F                outsd
00001867  636573            arpl [ebp+0x73],sp
0000186A  736F              jnc 0x18db
0000186C  7220              jc 0x188e
0000186E  46                inc esi
0000186F  61                popa
00001870  756C              jnz 0x18de
00001872  7400              jz 0x1874
00001874  41                inc ecx
00001875  6C                insb
00001876  69676E6D656E74    imul esp,[edi+0x6e],dword 0x746e656d
0000187D  204368            and [ebx+0x68],al
00001880  65636B00          arpl [gs:ebx+0x0],bp
00001884  4D                dec ebp
00001885  61                popa
00001886  636869            arpl [eax+0x69],bp
00001889  6E                outsb
0000188A  65204368          and [gs:ebx+0x68],al
0000188E  65636B00          arpl [gs:ebx+0x0],bp
00001892  52                push edx
00001893  657365            gs jnc 0x18fb
00001896  7276              jc 0x190e
00001898  65640000          add [fs:eax],al
0000189C  44                inc esp
0000189D  69766973696F6E    imul esi,[esi+0x69],dword 0x6e6f6973
000018A4  204279            and [edx+0x79],al
000018A7  205A65            and [edx+0x65],bl
000018AA  726F              jc 0x191b
000018AC  00446562          add [ebp+0x62],al
000018B0  7567              jnz 0x1919
000018B2  004E6F            add [esi+0x6f],cl
000018B5  6E                outsb
000018B6  204D61            and [ebp+0x61],cl
000018B9  736B              jnc 0x1926
000018BB  61                popa
000018BC  626C6520          bound ebp,[ebp+0x20]
000018C0  49                dec ecx
000018C1  6E                outsb
000018C2  7465              jz 0x1929
000018C4  7272              jc 0x1938
000018C6  7570              jnz 0x1938
000018C8  7400              jz 0x18ca
000018CA  42                inc edx
000018CB  7265              jc 0x1932
000018CD  61                popa
000018CE  6B706F69          imul esi,[eax+0x6f],byte +0x69
000018D2  6E                outsb
000018D3  7400              jz 0x18d5
000018D5  49                dec ecx
000018D6  6E                outsb
000018D7  746F              jz 0x1948
000018D9  20446574          and [ebp+0x74],al
000018DD  6563746564        arpl [gs:ebp+0x64],si
000018E2  204F76            and [edi+0x76],cl
000018E5  657266            gs jc 0x194e
000018E8  6C                insb
000018E9  6F                outsd
000018EA  7700              ja 0x18ec
000018EC  4F                dec edi
000018ED  7574              jnz 0x1963
000018EF  206F66            and [edi+0x66],ch
000018F2  20426F            and [edx+0x6f],al
000018F5  756E              jnz 0x1965
000018F7  647300            fs jnc 0x18fa
000018FA  49                dec ecx
000018FB  6E                outsb
000018FC  7661              jna 0x195f
000018FE  6C                insb
000018FF  6964204F70636F64  imul esp,[eax+0x4f],dword 0x646f6370
00001907  65004E6F          add [gs:esi+0x6f],cl
0000190B  20436F            and [ebx+0x6f],al
0000190E  7072              jo 0x1982
00001910  6F                outsd
00001911  636573            arpl [ebp+0x73],sp
00001914  736F              jnc 0x1985
00001916  7200              jc 0x1918
00001918  44                inc esp
00001919  6F                outsd
0000191A  7562              jnz 0x197e
0000191C  6C                insb
0000191D  65204661          and [gs:esi+0x61],al
00001921  756C              jnz 0x198f
00001923  7400              jz 0x1925
00001925  43                inc ebx
00001926  6F                outsd
00001927  7072              jo 0x199b
00001929  6F                outsd
0000192A  636573            arpl [ebp+0x73],sp
0000192D  736F              jnc 0x199e
0000192F  7220              jc 0x1951
00001931  53                push ebx
00001932  65676D            gs a16 insd
00001935  656E              gs outsb
00001937  7420              jz 0x1959
00001939  4F                dec edi
0000193A  7665              jna 0x19a1
0000193C  7272              jc 0x19b0
0000193E  756E              jnz 0x19ae
00001940  004261            add [edx+0x61],al
00001943  6420545353        and [fs:ebx+edx*2+0x53],dl
00001948  005365            add [ebx+0x65],dl
0000194B  676D              a16 insd
0000194D  656E              gs outsb
0000194F  7420              jz 0x1971
00001951  4E                dec esi
00001952  6F                outsd
00001953  7420              jz 0x1975
00001955  50                push eax
00001956  7265              jc 0x19bd
00001958  7365              jnc 0x19bf
0000195A  6E                outsb
0000195B  7400              jz 0x195d
0000195D  53                push ebx
0000195E  7461              jz 0x19c1
00001960  636B20            arpl [ebx+0x20],bp
00001963  46                inc esi
00001964  61                popa
00001965  756C              jnz 0x19d3
00001967  7400              jz 0x1969
00001969  47                inc edi
0000196A  656E              gs outsb
0000196C  657261            gs jc 0x19d0
0000196F  6C                insb
00001970  205072            and [eax+0x72],dl
00001973  6F                outsd
00001974  7465              jz 0x19db
00001976  6374696F          arpl [ecx+ebp*2+0x6f],si
0000197A  6E                outsb
0000197B  204661            and [esi+0x61],al
0000197E  756C              jnz 0x19ec
00001980  7400              jz 0x1982
00001982  50                push eax
00001983  61                popa
00001984  6765204661        and [gs:bp+0x61],al
00001989  756C              jnz 0x19f7
0000198B  7400              jz 0x198d
0000198D  55                push ebp
0000198E  6E                outsb
0000198F  6B6E6F77          imul ebp,[esi+0x6f],byte +0x77
00001993  6E                outsb
00001994  20496E            and [ecx+0x6e],cl
00001997  7465              jz 0x19fe
00001999  7272              jc 0x1a0d
0000199B  7570              jnz 0x1a0d
0000199D  7400              jz 0x199f
0000199F  43                inc ebx
000019A0  6F                outsd
000019A1  7072              jo 0x1a15
000019A3  6F                outsd
000019A4  636573            arpl [ebp+0x73],sp
000019A7  736F              jnc 0x1a18
000019A9  7220              jc 0x19cb
000019AB  46                inc esi
000019AC  61                popa
000019AD  756C              jnz 0x1a1b
000019AF  7400              jz 0x19b1
000019B1  41                inc ecx
000019B2  6C                insb
000019B3  69676E6D656E74    imul esp,[edi+0x6e],dword 0x746e656d
000019BA  204368            and [ebx+0x68],al
000019BD  65636B00          arpl [gs:ebx+0x0],bp
000019C1  4D                dec ebp
000019C2  61                popa
000019C3  636869            arpl [eax+0x69],bp
000019C6  6E                outsb
000019C7  65204368          and [gs:ebx+0x68],al
000019CB  65636B00          arpl [gs:ebx+0x0],bp
000019CF  52                push edx
000019D0  657365            gs jnc 0x1a38
000019D3  7276              jc 0x1a4b
000019D5  6564004552        add [fs:ebp+0x52],al
000019DA  52                push edx
000019DB  4F                dec edi
000019DC  52                push edx
000019DD  004553            add [ebp+0x53],al
000019E0  43                inc ebx
000019E1  0031              add [ecx],dh
000019E3  0032              add [edx],dh
000019E5  0033              add [ebx],dh
000019E7  003400            add [eax+eax],dh
000019EA  3500360037        xor eax,0x37003600
000019EF  0038              add [eax],bh
000019F1  0039              add [ecx],bh
000019F3  0030              add [eax],dh
000019F5  002D003D0042      add [dword 0x42003d00],ch
000019FB  41                inc ecx
000019FC  43                inc ebx
000019FD  4B                dec ebx
000019FE  53                push ebx
000019FF  50                push eax
00001A00  41                inc ecx
00001A01  43                inc ebx
00001A02  45                inc ebp
00001A03  00544142          add [ecx+eax*2+0x42],dl
00001A07  007100            add [ecx+0x0],dh
00001A0A  7700              ja 0x1a0c
00001A0C  65007200          add [gs:edx+0x0],dh
00001A10  7400              jz 0x1a12
00001A12  7900              jns 0x1a14
00001A14  7500              jnz 0x1a16
00001A16  69006F007000      imul eax,[eax],dword 0x70006f
00001A1C  5B                pop ebx
00001A1D  005D00            add [ebp+0x0],bl
00001A20  45                inc ebp
00001A21  4E                dec esi
00001A22  54                push esp
00001A23  45                inc ebp
00001A24  52                push edx
00001A25  004C4354          add [ebx+eax*2+0x54],cl
00001A29  52                push edx
00001A2A  4C                dec esp
00001A2B  006100            add [ecx+0x0],ah
00001A2E  7300              jnc 0x1a30
00001A30  64006600          add [fs:esi+0x0],ah
00001A34  67006800          add [bx+si+0x0],ch
00001A38  6A00              push byte +0x0
00001A3A  6B006C            imul eax,[eax],byte +0x6c
00001A3D  003B              add [ebx],bh
00001A3F  0027              add [edi],ah
00001A41  006000            add [eax+0x0],ah
00001A44  4C                dec esp
00001A45  53                push ebx
00001A46  48                dec eax
00001A47  49                dec ecx
00001A48  46                inc esi
00001A49  54                push esp
00001A4A  0023              add [ebx],ah
00001A4C  007A00            add [edx+0x0],bh
00001A4F  7800              js 0x1a51
00001A51  6300              arpl [eax],ax
00001A53  7600              jna 0x1a55
00001A55  6200              bound eax,[eax]
00001A57  6E                outsb
00001A58  006D00            add [ebp+0x0],ch
00001A5B  2C00              sub al,0x0
00001A5D  2E002F            add [cs:edi],ch
00001A60  005253            add [edx+0x53],dl
00001A63  48                dec eax
00001A64  49                dec ecx
00001A65  46                inc esi
00001A66  54                push esp
00001A67  005052            add [eax+0x52],dl
00001A6A  54                push esp
00001A6B  53                push ebx
00001A6C  43                inc ebx
00001A6D  4E                dec esi
00001A6E  3F                aas
00001A6F  004C414C          add [ecx+eax*2+0x4c],cl
00001A73  54                push esp
00001A74  0020              add [eax],ah
00001A76  004341            add [ebx+0x41],al
00001A79  50                push eax
00001A7A  53                push ebx
00001A7B  4C                dec esp
00001A7C  4F                dec edi
00001A7D  43                inc ebx
00001A7E  4B                dec ebx
00001A7F  004631            add [esi+0x31],al
00001A82  004632            add [esi+0x32],al
00001A85  004633            add [esi+0x33],al
00001A88  004634            add [esi+0x34],al
00001A8B  004635            add [esi+0x35],al
00001A8E  004636            add [esi+0x36],al
00001A91  004637            add [esi+0x37],al
00001A94  004638            add [esi+0x38],al
00001A97  004639            add [esi+0x39],al
00001A9A  004631            add [esi+0x31],al
00001A9D  3000              xor [eax],al
00001A9F  4E                dec esi
00001AA0  55                push ebp
00001AA1  4D                dec ebp
00001AA2  4C                dec esp
00001AA3  4F                dec edi
00001AA4  43                inc ebx
00001AA5  4B                dec ebx
00001AA6  005343            add [ebx+0x43],dl
00001AA9  52                push edx
00001AAA  4F                dec edi
00001AAB  4C                dec esp
00001AAC  4C                dec esp
00001AAD  4C                dec esp
00001AAE  4F                dec edi
00001AAF  43                inc ebx
00001AB0  4B                dec ebx
00001AB1  004B65            add [ebx+0x65],cl
00001AB4  7970              jns 0x1b26
00001AB6  61                popa
00001AB7  642D37004B65      fs sub eax,0x654b0037
00001ABD  7970              jns 0x1b2f
00001ABF  61                popa
00001AC0  642D38004B65      fs sub eax,0x654b0038
00001AC6  7970              jns 0x1b38
00001AC8  61                popa
00001AC9  642D39004B65      fs sub eax,0x654b0039
00001ACF  7970              jns 0x1b41
00001AD1  61                popa
00001AD2  642D2D004B65      fs sub eax,0x654b002d
00001AD8  7970              jns 0x1b4a
00001ADA  61                popa
00001ADB  642D34004B65      fs sub eax,0x654b0034
00001AE1  7970              jns 0x1b53
00001AE3  61                popa
00001AE4  642D35004B65      fs sub eax,0x654b0035
00001AEA  7970              jns 0x1b5c
00001AEC  61                popa
00001AED  642D36004B65      fs sub eax,0x654b0036
00001AF3  7970              jns 0x1b65
00001AF5  61                popa
00001AF6  642D2B004B65      fs sub eax,0x654b002b
00001AFC  7970              jns 0x1b6e
00001AFE  61                popa
00001AFF  642D31004B65      fs sub eax,0x654b0031
00001B05  7970              jns 0x1b77
00001B07  61                popa
00001B08  642D32004B65      fs sub eax,0x654b0032
00001B0E  7970              jns 0x1b80
00001B10  61                popa
00001B11  642D33004B65      fs sub eax,0x654b0033
00001B17  7970              jns 0x1b89
00001B19  61                popa
00001B1A  642D30004B65      fs sub eax,0x654b0030
00001B20  7970              jns 0x1b92
00001B22  61                popa
00001B23  642D2E00416C      fs sub eax,0x6c41002e
00001B29  742D              jz 0x1b58
00001B2B  53                push ebx
00001B2C  7973              jns 0x1ba1
00001B2E  52                push edx
00001B2F  51                push ecx
00001B30  004944            add [ecx+0x44],cl
00001B33  4B                dec ebx
00001B34  004631            add [esi+0x31],al
00001B37  3100              xor [eax],eax
00001B39  46                inc esi
00001B3A  3132              xor [edx],esi
00001B3C  005100            add [ecx+0x0],dl
00001B3F  57                push edi
00001B40  004500            add [ebp+0x0],al
00001B43  52                push edx
00001B44  00540059          add [eax+eax+0x59],dl
00001B48  005500            add [ebp+0x0],dl
00001B4B  49                dec ecx
00001B4C  004F00            add [edi+0x0],cl
00001B4F  50                push eax
00001B50  004100            add [ecx+0x0],al
00001B53  53                push ebx
00001B54  00440046          add [eax+eax+0x46],al
00001B58  004700            add [edi+0x0],al
00001B5B  48                dec eax
00001B5C  004A00            add [edx+0x0],cl
00001B5F  4B                dec ebx
00001B60  004C005A          add [eax+eax+0x5a],cl
00001B64  005800            add [eax+0x0],bl
00001B67  43                inc ebx
00001B68  005600            add [esi+0x0],dl
00001B6B  42                inc edx
00001B6C  004E00            add [esi+0x0],cl
00001B6F  4D                dec ebp
00001B70  004B45            add [ebx+0x45],cl
00001B73  59                pop ecx
00001B74  50                push eax
00001B75  41                inc ecx
00001B76  44                inc esp
00001B77  2D37004B45        sub eax,0x454b0037
00001B7C  59                pop ecx
00001B7D  50                push eax
00001B7E  41                inc ecx
00001B7F  44                inc esp
00001B80  2D38004B45        sub eax,0x454b0038
00001B85  59                pop ecx
00001B86  50                push eax
00001B87  41                inc ecx
00001B88  44                inc esp
00001B89  2D39004B45        sub eax,0x454b0039
00001B8E  59                pop ecx
00001B8F  50                push eax
00001B90  41                inc ecx
00001B91  44                inc esp
00001B92  2D2D004B45        sub eax,0x454b002d
00001B97  59                pop ecx
00001B98  50                push eax
00001B99  41                inc ecx
00001B9A  44                inc esp
00001B9B  2D34004B45        sub eax,0x454b0034
00001BA0  59                pop ecx
00001BA1  50                push eax
00001BA2  41                inc ecx
00001BA3  44                inc esp
00001BA4  2D35004B45        sub eax,0x454b0035
00001BA9  59                pop ecx
00001BAA  50                push eax
00001BAB  41                inc ecx
00001BAC  44                inc esp
00001BAD  2D36004B45        sub eax,0x454b0036
00001BB2  59                pop ecx
00001BB3  50                push eax
00001BB4  41                inc ecx
00001BB5  44                inc esp
00001BB6  2D2B004B45        sub eax,0x454b002b
00001BBB  59                pop ecx
00001BBC  50                push eax
00001BBD  41                inc ecx
00001BBE  44                inc esp
00001BBF  2D31004B45        sub eax,0x454b0031
00001BC4  59                pop ecx
00001BC5  50                push eax
00001BC6  41                inc ecx
00001BC7  44                inc esp
00001BC8  2D32004B45        sub eax,0x454b0032
00001BCD  59                pop ecx
00001BCE  50                push eax
00001BCF  41                inc ecx
00001BD0  44                inc esp
00001BD1  2D33004B45        sub eax,0x454b0033
00001BD6  59                pop ecx
00001BD7  50                push eax
00001BD8  41                inc ecx
00001BD9  44                inc esp
00001BDA  2D30004B45        sub eax,0x454b0030
00001BDF  59                pop ecx
00001BE0  50                push eax
00001BE1  41                inc ecx
00001BE2  44                inc esp
00001BE3  2D2E00414C        sub eax,0x4c41002e
00001BE8  54                push esp
00001BE9  2D53595352        sub eax,0x52535953
00001BEE  51                push ecx
00001BEF  0021              add [ecx],ah
00001BF1  0022              add [edx],ah
00001BF3  00C2              add dl,al
00001BF5  A300240025        mov [0x25002400],eax
00001BFA  005E00            add [esi+0x0],bl
00001BFD  26002A            add [es:edx],ch
00001C00  0028              add [eax],ch
00001C02  0029              add [ecx],ch
00001C04  005F00            add [edi+0x0],bl
00001C07  2B00              sub eax,[eax]
00001C09  7B00              jpo 0x1c0b
00001C0B  7D00              jnl 0x1c0d
00001C0D  3A00              cmp al,[eax]
00001C0F  40                inc eax
00001C10  007E00            add [esi+0x0],bh
00001C13  7C00              jl 0x1c15
00001C15  3C00              cmp al,0x0
00001C17  3E003F            add [ds:edi],bh
00001C1A  004B45            add [ebx+0x45],cl
00001C1D  59                pop ecx
00001C1E  50                push eax
00001C1F  41                inc ecx
00001C20  44                inc esp
00001C21  2D2A00484F        sub eax,0x4f48002a
00001C26  4D                dec ebp
00001C27  45                inc ebp
00001C28  005550            add [ebp+0x50],dl
00001C2B  005047            add [eax+0x47],dl
00001C2E  55                push ebp
00001C2F  50                push eax
00001C30  004C4546          add [ebp+eax*2+0x46],cl
00001C34  54                push esp
00001C35  005249            add [edx+0x49],dl
00001C38  47                inc edi
00001C39  48                dec eax
00001C3A  54                push esp
00001C3B  00454E            add [ebp+0x4e],al
00001C3E  44                inc esp
00001C3F  00444F57          add [edi+ecx*2+0x57],al
00001C43  4E                dec esi
00001C44  005047            add [eax+0x47],dl
00001C47  44                inc esp
00001C48  4F                dec edi
00001C49  57                push edi
00001C4A  4E                dec esi
00001C4B  00494E            add [ecx+0x4e],cl
00001C4E  53                push ebx
00001C4F  45                inc ebp
00001C50  52                push edx
00001C51  54                push esp
00001C52  0044454C          add [ebp+eax*2+0x4c],al
00001C56  45                inc ebp
00001C57  54                push esp
00001C58  45                inc ebp
00001C59  000A              add [edx],cl
00001C5B  00D1              add cl,dl
00001C5D  1300              adc eax,[eax]
00001C5F  004114            add [ecx+0x14],al
00001C62  0000              add [eax],al
00001C64  41                inc ecx
00001C65  1400              adc al,0x0
00001C67  004114            add [ecx+0x14],al
00001C6A  0000              add [eax],al
00001C6C  41                inc ecx
00001C6D  1400              adc al,0x0
00001C6F  004114            add [ecx+0x14],al
00001C72  0000              add [eax],al
00001C74  41                inc ecx
00001C75  1400              adc al,0x0
00001C77  004114            add [ecx+0x14],al
00001C7A  0000              add [eax],al
00001C7C  41                inc ecx
00001C7D  1400              adc al,0x0
00001C7F  004114            add [ecx+0x14],al
00001C82  0000              add [eax],al
00001C84  41                inc ecx
00001C85  1400              adc al,0x0
00001C87  004114            add [ecx+0x14],al
00001C8A  0000              add [eax],al
00001C8C  41                inc ecx
00001C8D  1400              adc al,0x0
00001C8F  004114            add [ecx+0x14],al
00001C92  0000              add [eax],al
00001C94  E613              out 0x13,al
00001C96  0000              add [eax],al
00001C98  41                inc ecx
00001C99  1400              adc al,0x0
00001C9B  004114            add [ecx+0x14],al
00001C9E  0000              add [eax],al
00001CA0  41                inc ecx
00001CA1  1400              adc al,0x0
00001CA3  004114            add [ecx+0x14],al
00001CA6  0000              add [eax],al
00001CA8  41                inc ecx
00001CA9  1400              adc al,0x0
00001CAB  004114            add [ecx+0x14],al
00001CAE  0000              add [eax],al
00001CB0  41                inc ecx
00001CB1  1400              adc al,0x0
00001CB3  004114            add [ecx+0x14],al
00001CB6  0000              add [eax],al
00001CB8  41                inc ecx
00001CB9  1400              adc al,0x0
00001CBB  004114            add [ecx+0x14],al
00001CBE  0000              add [eax],al
00001CC0  41                inc ecx
00001CC1  1400              adc al,0x0
00001CC3  004114            add [ecx+0x14],al
00001CC6  0000              add [eax],al
00001CC8  41                inc ecx
00001CC9  1400              adc al,0x0
00001CCB  000B              add [ebx],cl
00001CCD  1400              adc al,0x0
00001CCF  004114            add [ecx+0x14],al
00001CD2  0000              add [eax],al
00001CD4  41                inc ecx
00001CD5  1400              adc al,0x0
00001CD7  004114            add [ecx+0x14],al
00001CDA  0000              add [eax],al
00001CDC  41                inc ecx
00001CDD  1400              adc al,0x0
00001CDF  004114            add [ecx+0x14],al
00001CE2  0000              add [eax],al
00001CE4  41                inc ecx
00001CE5  1400              adc al,0x0
00001CE7  004114            add [ecx+0x14],al
00001CEA  0000              add [eax],al
00001CEC  41                inc ecx
00001CED  1400              adc al,0x0
00001CEF  004114            add [ecx+0x14],al
00001CF2  0000              add [eax],al
00001CF4  41                inc ecx
00001CF5  1400              adc al,0x0
00001CF7  004114            add [ecx+0x14],al
00001CFA  0000              add [eax],al
00001CFC  0B1400            or edx,[eax+eax]
00001CFF  004114            add [ecx+0x14],al
00001D02  0000              add [eax],al
00001D04  41                inc ecx
00001D05  1400              adc al,0x0
00001D07  004114            add [ecx+0x14],al
00001D0A  0000              add [eax],al
00001D0C  1F                pop ds
00001D0D  1400              adc al,0x0
00001D0F  00446976          add [ecx+ebp*2+0x76],al
00001D13  6973696F6E2042    imul esi,[ebx+0x69],dword 0x42206e6f
00001D1A  7920              jns 0x1d3c
00001D1C  5A                pop edx
00001D1D  65726F            gs jc 0x1d8f
00001D20  00446562          add [ebp+0x62],al
00001D24  7567              jnz 0x1d8d
00001D26  004E6F            add [esi+0x6f],cl
00001D29  6E                outsb
00001D2A  204D61            and [ebp+0x61],cl
00001D2D  736B              jnc 0x1d9a
00001D2F  61                popa
00001D30  626C6520          bound ebp,[ebp+0x20]
00001D34  49                dec ecx
00001D35  6E                outsb
00001D36  7465              jz 0x1d9d
00001D38  7272              jc 0x1dac
00001D3A  7570              jnz 0x1dac
00001D3C  7400              jz 0x1d3e
00001D3E  42                inc edx
00001D3F  7265              jc 0x1da6
00001D41  61                popa
00001D42  6B706F69          imul esi,[eax+0x6f],byte +0x69
00001D46  6E                outsb
00001D47  7400              jz 0x1d49
00001D49  49                dec ecx
00001D4A  6E                outsb
00001D4B  746F              jz 0x1dbc
00001D4D  20446574          and [ebp+0x74],al
00001D51  6563746564        arpl [gs:ebp+0x64],si
00001D56  204F76            and [edi+0x76],cl
00001D59  657266            gs jc 0x1dc2
00001D5C  6C                insb
00001D5D  6F                outsd
00001D5E  7700              ja 0x1d60
00001D60  4F                dec edi
00001D61  7574              jnz 0x1dd7
00001D63  206F66            and [edi+0x66],ch
00001D66  20426F            and [edx+0x6f],al
00001D69  756E              jnz 0x1dd9
00001D6B  647300            fs jnc 0x1d6e
00001D6E  49                dec ecx
00001D6F  6E                outsb
00001D70  7661              jna 0x1dd3
00001D72  6C                insb
00001D73  6964204F70636F64  imul esp,[eax+0x4f],dword 0x646f6370
00001D7B  65004E6F          add [gs:esi+0x6f],cl
00001D7F  20436F            and [ebx+0x6f],al
00001D82  7072              jo 0x1df6
00001D84  6F                outsd
00001D85  636573            arpl [ebp+0x73],sp
00001D88  736F              jnc 0x1df9
00001D8A  7200              jc 0x1d8c
00001D8C  44                inc esp
00001D8D  6F                outsd
00001D8E  7562              jnz 0x1df2
00001D90  6C                insb
00001D91  65204661          and [gs:esi+0x61],al
00001D95  756C              jnz 0x1e03
00001D97  7400              jz 0x1d99
00001D99  43                inc ebx
00001D9A  6F                outsd
00001D9B  7072              jo 0x1e0f
00001D9D  6F                outsd
00001D9E  636573            arpl [ebp+0x73],sp
00001DA1  736F              jnc 0x1e12
00001DA3  7220              jc 0x1dc5
00001DA5  53                push ebx
00001DA6  65676D            gs a16 insd
00001DA9  656E              gs outsb
00001DAB  7420              jz 0x1dcd
00001DAD  4F                dec edi
00001DAE  7665              jna 0x1e15
00001DB0  7272              jc 0x1e24
00001DB2  756E              jnz 0x1e22
00001DB4  004261            add [edx+0x61],al
00001DB7  6420545353        and [fs:ebx+edx*2+0x53],dl
00001DBC  005365            add [ebx+0x65],dl
00001DBF  676D              a16 insd
00001DC1  656E              gs outsb
00001DC3  7420              jz 0x1de5
00001DC5  4E                dec esi
00001DC6  6F                outsd
00001DC7  7420              jz 0x1de9
00001DC9  50                push eax
00001DCA  7265              jc 0x1e31
00001DCC  7365              jnc 0x1e33
00001DCE  6E                outsb
00001DCF  7400              jz 0x1dd1
00001DD1  53                push ebx
00001DD2  7461              jz 0x1e35
00001DD4  636B20            arpl [ebx+0x20],bp
00001DD7  46                inc esi
00001DD8  61                popa
00001DD9  756C              jnz 0x1e47
00001DDB  7400              jz 0x1ddd
00001DDD  47                inc edi
00001DDE  656E              gs outsb
00001DE0  657261            gs jc 0x1e44
00001DE3  6C                insb
00001DE4  205072            and [eax+0x72],dl
00001DE7  6F                outsd
00001DE8  7465              jz 0x1e4f
00001DEA  6374696F          arpl [ecx+ebp*2+0x6f],si
00001DEE  6E                outsb
00001DEF  204661            and [esi+0x61],al
00001DF2  756C              jnz 0x1e60
00001DF4  7400              jz 0x1df6
00001DF6  50                push eax
00001DF7  61                popa
00001DF8  6765204661        and [gs:bp+0x61],al
00001DFD  756C              jnz 0x1e6b
00001DFF  7400              jz 0x1e01
00001E01  55                push ebp
00001E02  6E                outsb
00001E03  6B6E6F77          imul ebp,[esi+0x6f],byte +0x77
00001E07  6E                outsb
00001E08  20496E            and [ecx+0x6e],cl
00001E0B  7465              jz 0x1e72
00001E0D  7272              jc 0x1e81
00001E0F  7570              jnz 0x1e81
00001E11  7400              jz 0x1e13
00001E13  43                inc ebx
00001E14  6F                outsd
00001E15  7072              jo 0x1e89
00001E17  6F                outsd
00001E18  636573            arpl [ebp+0x73],sp
00001E1B  736F              jnc 0x1e8c
00001E1D  7220              jc 0x1e3f
00001E1F  46                inc esi
00001E20  61                popa
00001E21  756C              jnz 0x1e8f
00001E23  7400              jz 0x1e25
00001E25  41                inc ecx
00001E26  6C                insb
00001E27  69676E6D656E74    imul esp,[edi+0x6e],dword 0x746e656d
00001E2E  204368            and [ebx+0x68],al
00001E31  65636B00          arpl [gs:ebx+0x0],bp
00001E35  4D                dec ebp
00001E36  61                popa
00001E37  636869            arpl [eax+0x69],bp
00001E3A  6E                outsb
00001E3B  65204368          and [gs:ebx+0x68],al
00001E3F  65636B00          arpl [gs:ebx+0x0],bp
00001E43  52                push edx
00001E44  657365            gs jnc 0x1eac
00001E47  7276              jc 0x1ebf
00001E49  6564000A          add [fs:edx],cl
00001E4D  0A2D2D2D2D45      or ch,[dword 0x452d2d2d]
00001E53  52                push edx
00001E54  52                push edx
00001E55  4F                dec edi
00001E56  52                push edx
00001E57  212D2D2D2D0A      and [dword 0xa2d2d2d],ebp
00001E5D  4D                dec ebp
00001E5E  657373            gs jnc 0x1ed4
00001E61  61                popa
00001E62  67653A20          cmp ah,[gs:bx+si]
00001E66  000A              add [edx],cl
00001E68  44                inc esp
00001E69  53                push ebx
00001E6A  3A20              cmp ah,[eax]
00001E6C  000A              add [edx],cl
00001E6E  45                inc ebp
00001E6F  44                inc esp
00001E70  49                dec ecx
00001E71  3A20              cmp ah,[eax]
00001E73  0020              add [eax],ah
00001E75  45                inc ebp
00001E76  53                push ebx
00001E77  49                dec ecx
00001E78  3A20              cmp ah,[eax]
00001E7A  0020              add [eax],ah
00001E7C  45                inc ebp
00001E7D  42                inc edx
00001E7E  50                push eax
00001E7F  3A20              cmp ah,[eax]
00001E81  0020              add [eax],ah
00001E83  45                inc ebp
00001E84  53                push ebx
00001E85  50                push eax
00001E86  3A20              cmp ah,[eax]
00001E88  000A              add [edx],cl
00001E8A  45                inc ebp
00001E8B  41                inc ecx
00001E8C  58                pop eax
00001E8D  3A20              cmp ah,[eax]
00001E8F  0020              add [eax],ah
00001E91  45                inc ebp
00001E92  42                inc edx
00001E93  58                pop eax
00001E94  3A20              cmp ah,[eax]
00001E96  0020              add [eax],ah
00001E98  45                inc ebp
00001E99  43                inc ebx
00001E9A  58                pop eax
00001E9B  3A20              cmp ah,[eax]
00001E9D  0020              add [eax],ah
00001E9F  45                inc ebp
00001EA0  44                inc esp
00001EA1  58                pop eax
00001EA2  3A20              cmp ah,[eax]
00001EA4  000A              add [edx],cl
00001EA6  49                dec ecx
00001EA7  4E                dec esi
00001EA8  54                push esp
00001EA9  5F                pop edi
00001EAA  4E                dec esi
00001EAB  4F                dec edi
00001EAC  3A20              cmp ah,[eax]
00001EAE  000A              add [edx],cl
00001EB0  45                inc ebp
00001EB1  7272              jc 0x1f25
00001EB3  6F                outsd
00001EB4  7220              jc 0x1ed6
00001EB6  43                inc ebx
00001EB7  6F                outsd
00001EB8  64653A20          cmp ah,[gs:eax]
00001EBC  000A              add [edx],cl
00001EBE  45                inc ebp
00001EBF  49                dec ecx
00001EC0  50                push eax
00001EC1  3A20              cmp ah,[eax]
00001EC3  0020              add [eax],ah
00001EC5  43                inc ebx
00001EC6  53                push ebx
00001EC7  3A20              cmp ah,[eax]
00001EC9  0020              add [eax],ah
00001ECB  45                inc ebp
00001ECC  46                inc esi
00001ECD  4C                dec esp
00001ECE  41                inc ecx
00001ECF  47                inc edi
00001ED0  53                push ebx
00001ED1  3A20              cmp ah,[eax]
00001ED3  0020              add [eax],ah
00001ED5  55                push ebp
00001ED6  53                push ebx
00001ED7  45                inc ebp
00001ED8  52                push edx
00001ED9  45                inc ebp
00001EDA  53                push ebx
00001EDB  50                push eax
00001EDC  3A20              cmp ah,[eax]
00001EDE  0020              add [eax],ah
00001EE0  53                push ebx
00001EE1  53                push ebx
00001EE2  3A20              cmp ah,[eax]
00001EE4  000A              add [edx],cl
00001EE6  0000              add [eax],al
00001EE8  3031              xor [ecx],dh
00001EEA  3233              xor dh,[ebx]
00001EEC  3435              xor al,0x35
00001EEE  3637              ss aaa
00001EF0  3839              cmp [ecx],bh
00001EF2  61                popa
00001EF3  626364            bound esp,[ebx+0x64]
00001EF6  65666761          gs a16 popaw
00001EFA  6D                insd
00001EFB  652D6F662D6C      gs sub eax,0x6c2d666f
00001F01  69666500556E6B    imul esp,[esi+0x65],dword 0x6b6e5500
00001F08  6E                outsb
00001F09  6F                outsd
00001F0A  776E              ja 0x1f7a
00001F0C  20636F            and [ebx+0x6f],ah
00001F0F  6D                insd
00001F10  6D                insd
00001F11  61                popa
00001F12  6E                outsb
00001F13  643A20            cmp ah,[fs:eax]
00001F16  000A              add [edx],cl
00001F18  3E0000            add [ds:eax],al
00001F1B  001400            add [eax+eax],dl
00001F1E  0000              add [eax],al
00001F20  0000              add [eax],al
00001F22  0000              add [eax],al
00001F24  017A52            add [edx+0x52],edi
00001F27  0001              add [ecx],al
00001F29  7C08              jl 0x1f33
00001F2B  011B              add [ebx],ebx
00001F2D  0C04              or al,0x4
00001F2F  0488              add al,0x88
00001F31  0100              add [eax],eax
00001F33  001C00            add [eax+eax],bl
00001F36  0000              add [eax],al
00001F38  1C00              sbb al,0x0
00001F3A  0000              add [eax],al
00001F3C  CB                retf
00001F3D  E2FF              loop 0x1f3e
00001F3F  FF8900000000      dec dword [ecx+0x0]
00001F45  41                inc ecx
00001F46  0E                push cs
00001F47  088502420D05      or [ebp+0x50d4202],al
00001F4D  0285C50C0404      add al,[ebp+0x4040cc5]
00001F53  001400            add [eax+eax],dl
00001F56  0000              add [eax],al
00001F58  0000              add [eax],al
00001F5A  0000              add [eax],al
00001F5C  017A52            add [edx+0x52],edi
00001F5F  0001              add [ecx],al
00001F61  7C08              jl 0x1f6b
00001F63  011B              add [ebx],ebx
00001F65  0C04              or al,0x4
00001F67  0488              add al,0x88
00001F69  0100              add [eax],eax
00001F6B  001C00            add [eax+eax],bl
00001F6E  0000              add [eax],al
00001F70  1C00              sbb al,0x0
00001F72  0000              add [eax],al
00001F74  1CE3              sbb al,0xe3
00001F76  FF                db 0xff
00001F77  FF6D00            jmp far [ebp+0x0]
00001F7A  0000              add [eax],al
00001F7C  00410E            add [ecx+0xe],al
00001F7F  088502420D05      or [ebp+0x50d4202],al
00001F85  0269C5            add ch,[ecx-0x3b]
00001F88  0C04              or al,0x4
00001F8A  0400              add al,0x0
00001F8C  1C00              sbb al,0x0
00001F8E  0000              add [eax],al
00001F90  3C00              cmp al,0x0
00001F92  0000              add [eax],al
00001F94  69E3FFFF6000      imul esp,ebx,dword 0x60ffff
00001F9A  0000              add [eax],al
00001F9C  00410E            add [ecx+0xe],al
00001F9F  088502420D05      or [ebp+0x50d4202],al
00001FA5  025CC50C          add bl,[ebp+eax*8+0xc]
00001FA9  0404              add al,0x4
00001FAB  001C00            add [eax+eax],bl
00001FAE  0000              add [eax],al
00001FB0  5C                pop esp
00001FB1  0000              add [eax],al
00001FB3  00A9E3FFFF1D      add [ecx+0x1dffffe3],ch
00001FB9  0000              add [eax],al
00001FBB  0000              add [eax],al
00001FBD  41                inc ecx
00001FBE  0E                push cs
00001FBF  088502420D05      or [ebp+0x50d4202],al
00001FC5  59                pop ecx
00001FC6  C50C04            lds ecx,[esp+eax]
00001FC9  0400              add al,0x0
00001FCB  001C00            add [eax+eax],bl
00001FCE  0000              add [eax],al
00001FD0  7C00              jl 0x1fd2
00001FD2  0000              add [eax],al
00001FD4  A6                cmpsb
00001FD5  E3FF              jecxz 0x1fd6
00001FD7  FF1B              call far [ebx]
00001FD9  0000              add [eax],al
00001FDB  0000              add [eax],al
00001FDD  41                inc ecx
00001FDE  0E                push cs
00001FDF  088502420D05      or [ebp+0x50d4202],al
00001FE5  57                push edi
00001FE6  C50C04            lds ecx,[esp+eax]
00001FE9  0400              add al,0x0
00001FEB  001C00            add [eax+eax],bl
00001FEE  0000              add [eax],al
00001FF0  9C                pushf
00001FF1  0000              add [eax],al
00001FF3  00A1E3FFFF1E      add [ecx+0x1effffe3],ah
00001FF9  0000              add [eax],al
00001FFB  0000              add [eax],al
00001FFD  41                inc ecx
00001FFE  0E                push cs
00001FFF  088502420D05      or [ebp+0x50d4202],al
00002005  5A                pop edx
00002006  C50C04            lds ecx,[esp+eax]
00002009  0400              add al,0x0
0000200B  0020              add [eax],ah
0000200D  0000              add [eax],al
0000200F  00BC0000009FE3    add [eax+eax-0x1c610000],bh
00002016  FF                db 0xff
00002017  FF                db 0xff
00002018  7B00              jpo 0x201a
0000201A  0000              add [eax],al
0000201C  00410E            add [ecx+0xe],al
0000201F  088502420D05      or [ebp+0x50d4202],al
00002025  44                inc esp
00002026  830302            add dword [ebx],byte +0x2
00002029  73C5              jnc 0x1ff0
0000202B  C3                ret
0000202C  0C04              or al,0x4
0000202E  0400              add al,0x0
00002030  1C00              sbb al,0x0
00002032  0000              add [eax],al
00002034  E000              loopne 0x2036
00002036  0000              add [eax],al
00002038  F6E3              mul bl
0000203A  FF                db 0xff
0000203B  FF32              push dword [edx]
0000203D  0000              add [eax],al
0000203F  0000              add [eax],al
00002041  41                inc ecx
00002042  0E                push cs
00002043  088502420D05      or [ebp+0x50d4202],al
00002049  6E                outsb
0000204A  C50C04            lds ecx,[esp+eax]
0000204D  0400              add al,0x0
0000204F  001C00            add [eax+eax],bl
00002052  0000              add [eax],al
00002054  0001              add [ecx],al
00002056  0000              add [eax],al
00002058  08E4              or ah,ah
0000205A  FF                db 0xff
0000205B  FF9D00000000      call far [ebp+0x0]
00002061  41                inc ecx
00002062  0E                push cs
00002063  088502420D05      or [ebp+0x50d4202],al
00002069  0299C50C0404      add bl,[ecx+0x4040cc5]
0000206F  001C00            add [eax+eax],bl
00002072  0000              add [eax],al
00002074  2001              and [ecx],al
00002076  0000              add [eax],al
00002078  85E4              test esp,esp
0000207A  FF                db 0xff
0000207B  FF4700            inc dword [edi+0x0]
0000207E  0000              add [eax],al
00002080  00410E            add [ecx+0xe],al
00002083  088502420D05      or [ebp+0x50d4202],al
00002089  0243C5            add al,[ebx-0x3b]
0000208C  0C04              or al,0x4
0000208E  0400              add al,0x0
00002090  1C00              sbb al,0x0
00002092  0000              add [eax],al
00002094  40                inc eax
00002095  0100              add [eax],eax
00002097  00ACE4FFFF5800    add [esp+0x58ffff],ch
0000209E  0000              add [eax],al
000020A0  00410E            add [ecx+0xe],al
000020A3  088502420D05      or [ebp+0x50d4202],al
000020A9  0254C50C          add dl,[ebp+eax*8+0xc]
000020AD  0404              add al,0x4
000020AF  001400            add [eax+eax],dl
000020B2  0000              add [eax],al
000020B4  0000              add [eax],al
000020B6  0000              add [eax],al
000020B8  017A52            add [edx+0x52],edi
000020BB  0001              add [ecx],al
000020BD  7C08              jl 0x20c7
000020BF  011B              add [ebx],ebx
000020C1  0C04              or al,0x4
000020C3  0488              add al,0x88
000020C5  0100              add [eax],eax
000020C7  001C00            add [eax+eax],bl
000020CA  0000              add [eax],al
000020CC  1C00              sbb al,0x0
000020CE  0000              add [eax],al
000020D0  CC                int3
000020D1  E4FF              in al,0xff
000020D3  FF6701            jmp [edi+0x1]
000020D6  0000              add [eax],al
000020D8  00410E            add [ecx+0xe],al
000020DB  088502420D05      or [ebp+0x50d4202],al
000020E1  036301            add esp,[ebx+0x1]
000020E4  C50C04            lds ecx,[esp+eax]
000020E7  041C              add al,0x1c
000020E9  0000              add [eax],al
000020EB  003C00            add [eax+eax],bh
000020EE  0000              add [eax],al
000020F0  13E6              adc esp,esi
000020F2  FF                db 0xff
000020F3  FF1B              call far [ebx]
000020F5  0000              add [eax],al
000020F7  0000              add [eax],al
000020F9  41                inc ecx
000020FA  0E                push cs
000020FB  088502420D05      or [ebp+0x50d4202],al
00002101  57                push edi
00002102  C50C04            lds ecx,[esp+eax]
00002105  0400              add al,0x0
00002107  001400            add [eax+eax],dl
0000210A  0000              add [eax],al
0000210C  0000              add [eax],al
0000210E  0000              add [eax],al
00002110  017A52            add [edx+0x52],edi
00002113  0001              add [ecx],al
00002115  7C08              jl 0x211f
00002117  011B              add [ebx],ebx
00002119  0C04              or al,0x4
0000211B  0488              add al,0x88
0000211D  0100              add [eax],eax
0000211F  001C00            add [eax+eax],bl
00002122  0000              add [eax],al
00002124  1C00              sbb al,0x0
00002126  0000              add [eax],al
00002128  F6E5              mul ch
0000212A  FF                db 0xff
0000212B  FF1D00000000      call far [dword 0x0]
00002131  41                inc ecx
00002132  0E                push cs
00002133  088502420D05      or [ebp+0x50d4202],al
00002139  59                pop ecx
0000213A  C50C04            lds ecx,[esp+eax]
0000213D  0400              add al,0x0
0000213F  001C00            add [eax+eax],bl
00002142  0000              add [eax],al
00002144  3C00              cmp al,0x0
00002146  0000              add [eax],al
00002148  F3E5FF            rep in eax,0xff
0000214B  FF1F              call far [edi]
0000214D  0000              add [eax],al
0000214F  0000              add [eax],al
00002151  41                inc ecx
00002152  0E                push cs
00002153  088502420D05      or [ebp+0x50d4202],al
00002159  5B                pop ebx
0000215A  C50C04            lds ecx,[esp+eax]
0000215D  0400              add al,0x0
0000215F  001400            add [eax+eax],dl
00002162  0000              add [eax],al
00002164  0000              add [eax],al
00002166  0000              add [eax],al
00002168  017A52            add [edx+0x52],edi
0000216B  0001              add [ecx],al
0000216D  7C08              jl 0x2177
0000216F  011B              add [ebx],ebx
00002171  0C04              or al,0x4
00002173  0488              add al,0x88
00002175  0100              add [eax],eax
00002177  001C00            add [eax+eax],bl
0000217A  0000              add [eax],al
0000217C  1C00              sbb al,0x0
0000217E  0000              add [eax],al
00002180  DA                db 0xda
00002181  E5FF              in eax,0xff
00002183  FF33              push dword [ebx]
00002185  0000              add [eax],al
00002187  0000              add [eax],al
00002189  41                inc ecx
0000218A  0E                push cs
0000218B  088502420D05      or [ebp+0x50d4202],al
00002191  6F                outsd
00002192  C50C04            lds ecx,[esp+eax]
00002195  0400              add al,0x0
00002197  001400            add [eax+eax],dl
0000219A  0000              add [eax],al
0000219C  0000              add [eax],al
0000219E  0000              add [eax],al
000021A0  017A52            add [edx+0x52],edi
000021A3  0001              add [ecx],al
000021A5  7C08              jl 0x21af
000021A7  011B              add [ebx],ebx
000021A9  0C04              or al,0x4
000021AB  0488              add al,0x88
000021AD  0100              add [eax],eax
000021AF  001C00            add [eax+eax],bl
000021B2  0000              add [eax],al
000021B4  1C00              sbb al,0x0
000021B6  0000              add [eax],al
000021B8  D5E5              aad 0xe5
000021BA  FF                db 0xff
000021BB  FF4C0000          dec dword [eax+eax+0x0]
000021BF  0000              add [eax],al
000021C1  41                inc ecx
000021C2  0E                push cs
000021C3  088502420D05      or [ebp+0x50d4202],al
000021C9  0248C5            add cl,[eax-0x3b]
000021CC  0C04              or al,0x4
000021CE  0400              add al,0x0
000021D0  1C00              sbb al,0x0
000021D2  0000              add [eax],al
000021D4  3C00              cmp al,0x0
000021D6  0000              add [eax],al
000021D8  01E6              add esi,esp
000021DA  FF                db 0xff
000021DB  FF21              jmp [ecx]
000021DD  0000              add [eax],al
000021DF  0000              add [eax],al
000021E1  41                inc ecx
000021E2  0E                push cs
000021E3  088502420D05      or [ebp+0x50d4202],al
000021E9  5D                pop ebp
000021EA  C50C04            lds ecx,[esp+eax]
000021ED  0400              add al,0x0
000021EF  001400            add [eax+eax],dl
000021F2  0000              add [eax],al
000021F4  0000              add [eax],al
000021F6  0000              add [eax],al
000021F8  017A52            add [edx+0x52],edi
000021FB  0001              add [ecx],al
000021FD  7C08              jl 0x2207
000021FF  011B              add [ebx],ebx
00002201  0C04              or al,0x4
00002203  0488              add al,0x88
00002205  0100              add [eax],eax
00002207  001C00            add [eax+eax],bl
0000220A  0000              add [eax],al
0000220C  1C00              sbb al,0x0
0000220E  0000              add [eax],al
00002210  EAE5FFFF130000    jmp 0x0:0x13ffffe5
00002217  0000              add [eax],al
00002219  41                inc ecx
0000221A  0E                push cs
0000221B  088502420D05      or [ebp+0x50d4202],al
00002221  4F                dec edi
00002222  C50C04            lds ecx,[esp+eax]
00002225  0400              add al,0x0
00002227  001C00            add [eax+eax],bl
0000222A  0000              add [eax],al
0000222C  3C00              cmp al,0x0
0000222E  0000              add [eax],al
00002230  DDE5              fucom st5
00002232  FF                db 0xff
00002233  FF640000          jmp [eax+eax+0x0]
00002237  0000              add [eax],al
00002239  41                inc ecx
0000223A  0E                push cs
0000223B  088502420D05      or [ebp+0x50d4202],al
00002241  0260C5            add ah,[eax-0x3b]
00002244  0C04              or al,0x4
00002246  0400              add al,0x0
00002248  1400              adc al,0x0
0000224A  0000              add [eax],al
0000224C  0000              add [eax],al
0000224E  0000              add [eax],al
00002250  017A52            add [edx+0x52],edi
00002253  0001              add [ecx],al
00002255  7C08              jl 0x225f
00002257  011B              add [ebx],ebx
00002259  0C04              or al,0x4
0000225B  0488              add al,0x88
0000225D  0100              add [eax],eax
0000225F  001C00            add [eax+eax],bl
00002262  0000              add [eax],al
00002264  1C00              sbb al,0x0
00002266  0000              add [eax],al
00002268  09E6              or esi,esp
0000226A  FF                db 0xff
0000226B  FF540400          call [esp+eax+0x0]
0000226F  0000              add [eax],al
00002271  41                inc ecx
00002272  0E                push cs
00002273  088502420D05      or [ebp+0x50d4202],al
00002279  035004            add edx,[eax+0x4]
0000227C  C50C04            lds ecx,[esp+eax]
0000227F  041C              add al,0x1c
00002281  0000              add [eax],al
00002283  003C00            add [eax+eax],bh
00002286  0000              add [eax],al
00002288  3DEAFFFF43        cmp eax,0x43ffffea
0000228D  0400              add al,0x0
0000228F  0000              add [eax],al
00002291  41                inc ecx
00002292  0E                push cs
00002293  088502420D05      or [ebp+0x50d4202],al
00002299  033F              add edi,[edi]
0000229B  04C5              add al,0xc5
0000229D  0C04              or al,0x4
0000229F  0414              add al,0x14
000022A1  0000              add [eax],al
000022A3  0000              add [eax],al
000022A5  0000              add [eax],al
000022A7  0001              add [ecx],al
000022A9  7A52              jpe 0x22fd
000022AB  0001              add [ecx],al
000022AD  7C08              jl 0x22b7
000022AF  011B              add [ebx],ebx
000022B1  0C04              or al,0x4
000022B3  0488              add al,0x88
000022B5  0100              add [eax],eax
000022B7  001C00            add [eax+eax],bl
000022BA  0000              add [eax],al
000022BC  1C00              sbb al,0x0
000022BE  0000              add [eax],al
000022C0  2AF0              sub dh,al
000022C2  FF                db 0xff
000022C3  FF27              jmp [edi]
000022C5  0000              add [eax],al
000022C7  0000              add [eax],al
000022C9  41                inc ecx
000022CA  0E                push cs
000022CB  088502420D05      or [ebp+0x50d4202],al
000022D1  63C5              arpl bp,ax
000022D3  0C04              or al,0x4
000022D5  0400              add al,0x0
000022D7  001C00            add [eax+eax],bl
000022DA  0000              add [eax],al
000022DC  3C00              cmp al,0x0
000022DE  0000              add [eax],al
000022E0  31F0              xor eax,esi
000022E2  FF                db 0xff
000022E3  FF                db 0xff
000022E4  3900              cmp [eax],eax
000022E6  0000              add [eax],al
000022E8  00410E            add [ecx+0xe],al
000022EB  088502420D05      or [ebp+0x50d4202],al
000022F1  75C5              jnz 0x22b8
000022F3  0C04              or al,0x4
000022F5  0400              add al,0x0
000022F7  001C00            add [eax+eax],bl
000022FA  0000              add [eax],al
000022FC  5C                pop esp
000022FD  0000              add [eax],al
000022FF  004AF0            add [edx-0x10],cl
00002302  FF                db 0xff
00002303  FF0C00            dec dword [eax+eax]
00002306  0000              add [eax],al
00002308  00410E            add [ecx+0xe],al
0000230B  088502420D05      or [ebp+0x50d4202],al
00002311  48                dec eax
00002312  C50C04            lds ecx,[esp+eax]
00002315  0400              add al,0x0
00002317  001C00            add [eax+eax],bl
0000231A  0000              add [eax],al
0000231C  7C00              jl 0x231e
0000231E  0000              add [eax],al
00002320  36                ss
00002321  F0                lock
00002322  FF                db 0xff
00002323  FF                db 0xff
00002324  3F                aas
00002325  0000              add [eax],al
00002327  0000              add [eax],al
00002329  41                inc ecx
0000232A  0E                push cs
0000232B  088502420D05      or [ebp+0x50d4202],al
00002331  7BC5              jpo 0x22f8
00002333  0C04              or al,0x4
00002335  0400              add al,0x0
00002337  001C00            add [eax+eax],bl
0000233A  0000              add [eax],al
0000233C  9C                pushf
0000233D  0000              add [eax],al
0000233F  0055F0            add [ebp-0x10],dl
00002342  FF                db 0xff
00002343  FF640000          jmp [eax+eax+0x0]
00002347  0000              add [eax],al
00002349  41                inc ecx
0000234A  0E                push cs
0000234B  088502420D05      or [ebp+0x50d4202],al
00002351  0260C5            add ah,[eax-0x3b]
00002354  0C04              or al,0x4
00002356  0400              add al,0x0
00002358  1C00              sbb al,0x0
0000235A  0000              add [eax],al
0000235C  BC00000099        mov esp,0x99000000
00002361  F0                lock
00002362  FF                db 0xff
00002363  FF6700            jmp [edi+0x0]
00002366  0000              add [eax],al
00002368  00410E            add [ecx+0xe],al
0000236B  088502420D05      or [ebp+0x50d4202],al
00002371  0263C5            add ah,[ebx-0x3b]
00002374  0C04              or al,0x4
00002376  0400              add al,0x0
00002378  1400              adc al,0x0
0000237A  0000              add [eax],al
0000237C  0000              add [eax],al
0000237E  0000              add [eax],al
00002380  017A52            add [edx+0x52],edi
00002383  0001              add [ecx],al
00002385  7C08              jl 0x238f
00002387  011B              add [ebx],ebx
00002389  0C04              or al,0x4
0000238B  0488              add al,0x88
0000238D  0100              add [eax],eax
0000238F  001C00            add [eax+eax],bl
00002392  0000              add [eax],al
00002394  1C00              sbb al,0x0
00002396  0000              add [eax],al
00002398  C8F0FFFF          enter 0xfff0,0xff
0000239C  0E                push cs
0000239D  0000              add [eax],al
0000239F  0000              add [eax],al
000023A1  41                inc ecx
000023A2  0E                push cs
000023A3  088502420D05      or [ebp+0x50d4202],al
000023A9  4A                dec edx
000023AA  C50C04            lds ecx,[esp+eax]
000023AD  0400              add al,0x0
000023AF  001C00            add [eax+eax],bl
000023B2  0000              add [eax],al
000023B4  3C00              cmp al,0x0
000023B6  0000              add [eax],al
000023B8  B6F0              mov dh,0xf0
000023BA  FF                db 0xff
000023BB  FF6300            jmp [ebx+0x0]
000023BE  0000              add [eax],al
000023C0  00410E            add [ecx+0xe],al
000023C3  088502420D05      or [ebp+0x50d4202],al
000023C9  025FC5            add bl,[edi-0x3b]
000023CC  0C04              or al,0x4
000023CE  0400              add al,0x0
000023D0  0000              add [eax],al
000023D2  0000              add [eax],al
000023D4  0000              add [eax],al
000023D6  0000              add [eax],al
000023D8  0000              add [eax],al
000023DA  0000              add [eax],al
000023DC  0000              add [eax],al
000023DE  0000              add [eax],al
000023E0  0000              add [eax],al
000023E2  0000              add [eax],al
000023E4  0000              add [eax],al
000023E6  0000              add [eax],al
000023E8  0000              add [eax],al
000023EA  0000              add [eax],al
000023EC  0000              add [eax],al
000023EE  0000              add [eax],al
000023F0  0000              add [eax],al
000023F2  0000              add [eax],al
000023F4  0000              add [eax],al
000023F6  0000              add [eax],al
000023F8  0000              add [eax],al
000023FA  0000              add [eax],al
000023FC  0000              add [eax],al
000023FE  0000              add [eax],al
00002400  0000              add [eax],al
00002402  0000              add [eax],al
00002404  0000              add [eax],al
00002406  0000              add [eax],al
00002408  0000              add [eax],al
0000240A  0000              add [eax],al
0000240C  0000              add [eax],al
0000240E  0000              add [eax],al
00002410  0000              add [eax],al
00002412  0000              add [eax],al
00002414  0000              add [eax],al
00002416  0000              add [eax],al
00002418  0000              add [eax],al
0000241A  0000              add [eax],al
0000241C  0000              add [eax],al
0000241E  0000              add [eax],al
00002420  0000              add [eax],al
00002422  0000              add [eax],al
00002424  0000              add [eax],al
00002426  0000              add [eax],al
00002428  0000              add [eax],al
0000242A  0000              add [eax],al
0000242C  0000              add [eax],al
0000242E  0000              add [eax],al
00002430  0000              add [eax],al
00002432  0000              add [eax],al
00002434  0000              add [eax],al
00002436  0000              add [eax],al
00002438  0000              add [eax],al
0000243A  0000              add [eax],al
0000243C  0000              add [eax],al
0000243E  0000              add [eax],al
00002440  0000              add [eax],al
00002442  0000              add [eax],al
00002444  0000              add [eax],al
00002446  0000              add [eax],al
00002448  0000              add [eax],al
0000244A  0000              add [eax],al
0000244C  0000              add [eax],al
0000244E  0000              add [eax],al
00002450  0000              add [eax],al
00002452  0000              add [eax],al
00002454  0000              add [eax],al
00002456  0000              add [eax],al
00002458  0000              add [eax],al
0000245A  0000              add [eax],al
0000245C  0000              add [eax],al
0000245E  0000              add [eax],al
00002460  0000              add [eax],al
00002462  0000              add [eax],al
00002464  0000              add [eax],al
00002466  0000              add [eax],al
00002468  0000              add [eax],al
0000246A  0000              add [eax],al
0000246C  0000              add [eax],al
0000246E  0000              add [eax],al
00002470  0000              add [eax],al
00002472  0000              add [eax],al
00002474  0000              add [eax],al
00002476  0000              add [eax],al
00002478  0000              add [eax],al
0000247A  0000              add [eax],al
0000247C  0000              add [eax],al
0000247E  0000              add [eax],al
00002480  0000              add [eax],al
00002482  0000              add [eax],al
00002484  0000              add [eax],al
00002486  0000              add [eax],al
00002488  0000              add [eax],al
0000248A  0000              add [eax],al
0000248C  0000              add [eax],al
0000248E  0000              add [eax],al
00002490  0000              add [eax],al
00002492  0000              add [eax],al
00002494  0000              add [eax],al
00002496  0000              add [eax],al
00002498  0000              add [eax],al
0000249A  0000              add [eax],al
0000249C  0000              add [eax],al
0000249E  0000              add [eax],al
000024A0  0000              add [eax],al
000024A2  0000              add [eax],al
000024A4  0000              add [eax],al
000024A6  0000              add [eax],al
000024A8  0000              add [eax],al
000024AA  0000              add [eax],al
000024AC  0000              add [eax],al
000024AE  0000              add [eax],al
000024B0  0000              add [eax],al
000024B2  0000              add [eax],al
000024B4  0000              add [eax],al
000024B6  0000              add [eax],al
000024B8  0000              add [eax],al
000024BA  0000              add [eax],al
000024BC  0000              add [eax],al
000024BE  0000              add [eax],al
000024C0  0000              add [eax],al
000024C2  0000              add [eax],al
000024C4  0000              add [eax],al
000024C6  0000              add [eax],al
000024C8  0000              add [eax],al
000024CA  0000              add [eax],al
000024CC  0000              add [eax],al
000024CE  0000              add [eax],al
000024D0  0000              add [eax],al
000024D2  0000              add [eax],al
000024D4  0000              add [eax],al
000024D6  0000              add [eax],al
000024D8  0000              add [eax],al
000024DA  0000              add [eax],al
000024DC  0000              add [eax],al
000024DE  0000              add [eax],al
000024E0  0000              add [eax],al
000024E2  0000              add [eax],al
000024E4  0000              add [eax],al
000024E6  0000              add [eax],al
000024E8  0000              add [eax],al
000024EA  0000              add [eax],al
000024EC  0000              add [eax],al
000024EE  0000              add [eax],al
000024F0  0000              add [eax],al
000024F2  0000              add [eax],al
000024F4  0000              add [eax],al
000024F6  0000              add [eax],al
000024F8  0000              add [eax],al
000024FA  0000              add [eax],al
000024FC  0000              add [eax],al
000024FE  0000              add [eax],al
00002500  0000              add [eax],al
00002502  0000              add [eax],al
00002504  0000              add [eax],al
00002506  0000              add [eax],al
00002508  0000              add [eax],al
0000250A  0000              add [eax],al
0000250C  0000              add [eax],al
0000250E  0000              add [eax],al
00002510  0000              add [eax],al
00002512  0000              add [eax],al
00002514  0000              add [eax],al
00002516  0000              add [eax],al
00002518  0000              add [eax],al
0000251A  0000              add [eax],al
0000251C  0000              add [eax],al
0000251E  0000              add [eax],al
00002520  0000              add [eax],al
00002522  0000              add [eax],al
00002524  0000              add [eax],al
00002526  0000              add [eax],al
00002528  0000              add [eax],al
0000252A  0000              add [eax],al
0000252C  0000              add [eax],al
0000252E  0000              add [eax],al
00002530  0000              add [eax],al
00002532  0000              add [eax],al
00002534  0000              add [eax],al
00002536  0000              add [eax],al
00002538  0000              add [eax],al
0000253A  0000              add [eax],al
0000253C  0000              add [eax],al
0000253E  0000              add [eax],al
00002540  0000              add [eax],al
00002542  0000              add [eax],al
00002544  0000              add [eax],al
00002546  0000              add [eax],al
00002548  0000              add [eax],al
0000254A  0000              add [eax],al
0000254C  0000              add [eax],al
0000254E  0000              add [eax],al
00002550  0000              add [eax],al
00002552  0000              add [eax],al
00002554  0000              add [eax],al
00002556  0000              add [eax],al
00002558  0000              add [eax],al
0000255A  0000              add [eax],al
0000255C  0000              add [eax],al
0000255E  0000              add [eax],al
00002560  0000              add [eax],al
00002562  0000              add [eax],al
00002564  0000              add [eax],al
00002566  0000              add [eax],al
00002568  0000              add [eax],al
0000256A  0000              add [eax],al
0000256C  0000              add [eax],al
0000256E  0000              add [eax],al
00002570  0000              add [eax],al
00002572  0000              add [eax],al
00002574  0000              add [eax],al
00002576  0000              add [eax],al
00002578  0000              add [eax],al
0000257A  0000              add [eax],al
0000257C  0000              add [eax],al
0000257E  0000              add [eax],al
00002580  0000              add [eax],al
00002582  0000              add [eax],al
00002584  0000              add [eax],al
00002586  0000              add [eax],al
00002588  0000              add [eax],al
0000258A  0000              add [eax],al
0000258C  0000              add [eax],al
0000258E  0000              add [eax],al
00002590  0000              add [eax],al
00002592  0000              add [eax],al
00002594  0000              add [eax],al
00002596  0000              add [eax],al
00002598  0000              add [eax],al
0000259A  0000              add [eax],al
0000259C  0000              add [eax],al
0000259E  0000              add [eax],al
000025A0  0000              add [eax],al
000025A2  0000              add [eax],al
000025A4  0000              add [eax],al
000025A6  0000              add [eax],al
000025A8  0000              add [eax],al
000025AA  0000              add [eax],al
000025AC  0000              add [eax],al
000025AE  0000              add [eax],al
000025B0  0000              add [eax],al
000025B2  0000              add [eax],al
000025B4  0000              add [eax],al
000025B6  0000              add [eax],al
000025B8  0000              add [eax],al
000025BA  0000              add [eax],al
000025BC  0000              add [eax],al
000025BE  0000              add [eax],al
000025C0  0000              add [eax],al
000025C2  0000              add [eax],al
000025C4  0000              add [eax],al
000025C6  0000              add [eax],al
000025C8  0000              add [eax],al
000025CA  0000              add [eax],al
000025CC  0000              add [eax],al
000025CE  0000              add [eax],al
000025D0  0000              add [eax],al
000025D2  0000              add [eax],al
000025D4  0000              add [eax],al
000025D6  0000              add [eax],al
000025D8  0000              add [eax],al
000025DA  0000              add [eax],al
000025DC  0000              add [eax],al
000025DE  0000              add [eax],al
000025E0  0000              add [eax],al
000025E2  0000              add [eax],al
000025E4  0000              add [eax],al
000025E6  0000              add [eax],al
000025E8  0000              add [eax],al
000025EA  0000              add [eax],al
000025EC  0000              add [eax],al
000025EE  0000              add [eax],al
000025F0  0000              add [eax],al
000025F2  0000              add [eax],al
000025F4  0000              add [eax],al
000025F6  0000              add [eax],al
000025F8  0000              add [eax],al
000025FA  0000              add [eax],al
000025FC  0000              add [eax],al
000025FE  0000              add [eax],al
00002600  0000              add [eax],al
00002602  0000              add [eax],al
00002604  0000              add [eax],al
00002606  0000              add [eax],al
00002608  0000              add [eax],al
0000260A  0000              add [eax],al
0000260C  0000              add [eax],al
0000260E  0000              add [eax],al
00002610  0000              add [eax],al
00002612  0000              add [eax],al
00002614  0000              add [eax],al
00002616  0000              add [eax],al
00002618  0000              add [eax],al
0000261A  0000              add [eax],al
0000261C  0000              add [eax],al
0000261E  0000              add [eax],al
00002620  0000              add [eax],al
00002622  0000              add [eax],al
00002624  0000              add [eax],al
00002626  0000              add [eax],al
00002628  0000              add [eax],al
0000262A  0000              add [eax],al
0000262C  0000              add [eax],al
0000262E  0000              add [eax],al
00002630  0000              add [eax],al
00002632  0000              add [eax],al
00002634  0000              add [eax],al
00002636  0000              add [eax],al
00002638  0000              add [eax],al
0000263A  0000              add [eax],al
0000263C  0000              add [eax],al
0000263E  0000              add [eax],al
00002640  0000              add [eax],al
00002642  0000              add [eax],al
00002644  0000              add [eax],al
00002646  0000              add [eax],al
00002648  0000              add [eax],al
0000264A  0000              add [eax],al
0000264C  0000              add [eax],al
0000264E  0000              add [eax],al
00002650  0000              add [eax],al
00002652  0000              add [eax],al
00002654  0000              add [eax],al
00002656  0000              add [eax],al
00002658  0000              add [eax],al
0000265A  0000              add [eax],al
0000265C  0000              add [eax],al
0000265E  0000              add [eax],al
00002660  0000              add [eax],al
00002662  0000              add [eax],al
00002664  0000              add [eax],al
00002666  0000              add [eax],al
00002668  0000              add [eax],al
0000266A  0000              add [eax],al
0000266C  0000              add [eax],al
0000266E  0000              add [eax],al
00002670  0000              add [eax],al
00002672  0000              add [eax],al
00002674  0000              add [eax],al
00002676  0000              add [eax],al
00002678  0000              add [eax],al
0000267A  0000              add [eax],al
0000267C  0000              add [eax],al
0000267E  0000              add [eax],al
00002680  0000              add [eax],al
00002682  0000              add [eax],al
00002684  0000              add [eax],al
00002686  0000              add [eax],al
00002688  0000              add [eax],al
0000268A  0000              add [eax],al
0000268C  0000              add [eax],al
0000268E  0000              add [eax],al
00002690  0000              add [eax],al
00002692  0000              add [eax],al
00002694  0000              add [eax],al
00002696  0000              add [eax],al
00002698  0000              add [eax],al
0000269A  0000              add [eax],al
0000269C  0000              add [eax],al
0000269E  0000              add [eax],al
000026A0  0000              add [eax],al
000026A2  0000              add [eax],al
000026A4  0000              add [eax],al
000026A6  0000              add [eax],al
000026A8  0000              add [eax],al
000026AA  0000              add [eax],al
000026AC  0000              add [eax],al
000026AE  0000              add [eax],al
000026B0  0000              add [eax],al
000026B2  0000              add [eax],al
000026B4  0000              add [eax],al
000026B6  0000              add [eax],al
000026B8  0000              add [eax],al
000026BA  0000              add [eax],al
000026BC  0000              add [eax],al
000026BE  0000              add [eax],al
000026C0  0000              add [eax],al
000026C2  0000              add [eax],al
000026C4  0000              add [eax],al
000026C6  0000              add [eax],al
000026C8  0000              add [eax],al
000026CA  0000              add [eax],al
000026CC  0000              add [eax],al
000026CE  0000              add [eax],al
000026D0  0000              add [eax],al
000026D2  0000              add [eax],al
000026D4  0000              add [eax],al
000026D6  0000              add [eax],al
000026D8  0000              add [eax],al
000026DA  0000              add [eax],al
000026DC  0000              add [eax],al
000026DE  0000              add [eax],al
000026E0  0000              add [eax],al
000026E2  0000              add [eax],al
000026E4  0000              add [eax],al
000026E6  0000              add [eax],al
000026E8  0000              add [eax],al
000026EA  0000              add [eax],al
000026EC  0000              add [eax],al
000026EE  0000              add [eax],al
000026F0  0000              add [eax],al
000026F2  0000              add [eax],al
000026F4  0000              add [eax],al
000026F6  0000              add [eax],al
000026F8  0000              add [eax],al
000026FA  0000              add [eax],al
000026FC  0000              add [eax],al
000026FE  0000              add [eax],al
00002700  0000              add [eax],al
00002702  0000              add [eax],al
00002704  0000              add [eax],al
00002706  0000              add [eax],al
00002708  0000              add [eax],al
0000270A  0000              add [eax],al
0000270C  0000              add [eax],al
0000270E  0000              add [eax],al
00002710  0000              add [eax],al
00002712  0000              add [eax],al
00002714  0000              add [eax],al
00002716  0000              add [eax],al
00002718  0000              add [eax],al
0000271A  0000              add [eax],al
0000271C  0000              add [eax],al
0000271E  0000              add [eax],al
00002720  0000              add [eax],al
00002722  0000              add [eax],al
00002724  0000              add [eax],al
00002726  0000              add [eax],al
00002728  0000              add [eax],al
0000272A  0000              add [eax],al
0000272C  0000              add [eax],al
0000272E  0000              add [eax],al
00002730  0000              add [eax],al
00002732  0000              add [eax],al
00002734  0000              add [eax],al
00002736  0000              add [eax],al
00002738  0000              add [eax],al
0000273A  0000              add [eax],al
0000273C  0000              add [eax],al
0000273E  0000              add [eax],al
00002740  0000              add [eax],al
00002742  0000              add [eax],al
00002744  0000              add [eax],al
00002746  0000              add [eax],al
00002748  0000              add [eax],al
0000274A  0000              add [eax],al
0000274C  0000              add [eax],al
0000274E  0000              add [eax],al
00002750  0000              add [eax],al
00002752  0000              add [eax],al
00002754  0000              add [eax],al
00002756  0000              add [eax],al
00002758  0000              add [eax],al
0000275A  0000              add [eax],al
0000275C  0000              add [eax],al
0000275E  0000              add [eax],al
00002760  0000              add [eax],al
00002762  0000              add [eax],al
00002764  0000              add [eax],al
00002766  0000              add [eax],al
00002768  0000              add [eax],al
0000276A  0000              add [eax],al
0000276C  0000              add [eax],al
0000276E  0000              add [eax],al
00002770  0000              add [eax],al
00002772  0000              add [eax],al
00002774  0000              add [eax],al
00002776  0000              add [eax],al
00002778  0000              add [eax],al
0000277A  0000              add [eax],al
0000277C  0000              add [eax],al
0000277E  0000              add [eax],al
00002780  0000              add [eax],al
00002782  0000              add [eax],al
00002784  0000              add [eax],al
00002786  0000              add [eax],al
00002788  0000              add [eax],al
0000278A  0000              add [eax],al
0000278C  0000              add [eax],al
0000278E  0000              add [eax],al
00002790  0000              add [eax],al
00002792  0000              add [eax],al
00002794  0000              add [eax],al
00002796  0000              add [eax],al
00002798  0000              add [eax],al
0000279A  0000              add [eax],al
0000279C  0000              add [eax],al
0000279E  0000              add [eax],al
000027A0  0000              add [eax],al
000027A2  0000              add [eax],al
000027A4  0000              add [eax],al
000027A6  0000              add [eax],al
000027A8  0000              add [eax],al
000027AA  0000              add [eax],al
000027AC  0000              add [eax],al
000027AE  0000              add [eax],al
000027B0  0000              add [eax],al
000027B2  0000              add [eax],al
000027B4  0000              add [eax],al
000027B6  0000              add [eax],al
000027B8  0000              add [eax],al
000027BA  0000              add [eax],al
000027BC  0000              add [eax],al
000027BE  0000              add [eax],al
000027C0  0000              add [eax],al
000027C2  0000              add [eax],al
000027C4  0000              add [eax],al
000027C6  0000              add [eax],al
000027C8  0000              add [eax],al
000027CA  0000              add [eax],al
000027CC  0000              add [eax],al
000027CE  0000              add [eax],al
000027D0  0000              add [eax],al
000027D2  0000              add [eax],al
000027D4  0000              add [eax],al
000027D6  0000              add [eax],al
000027D8  0000              add [eax],al
000027DA  0000              add [eax],al
000027DC  0000              add [eax],al
000027DE  0000              add [eax],al
000027E0  0000              add [eax],al
000027E2  0000              add [eax],al
000027E4  0000              add [eax],al
000027E6  0000              add [eax],al
000027E8  0000              add [eax],al
000027EA  0000              add [eax],al
000027EC  0000              add [eax],al
000027EE  0000              add [eax],al
000027F0  0000              add [eax],al
000027F2  0000              add [eax],al
000027F4  0000              add [eax],al
000027F6  0000              add [eax],al
000027F8  0000              add [eax],al
000027FA  0000              add [eax],al
000027FC  0000              add [eax],al
000027FE  0000              add [eax],al
00002800  0000              add [eax],al
00002802  0000              add [eax],al
00002804  0000              add [eax],al
00002806  0000              add [eax],al
00002808  0000              add [eax],al
0000280A  0000              add [eax],al
0000280C  0000              add [eax],al
0000280E  0000              add [eax],al
00002810  0000              add [eax],al
00002812  0000              add [eax],al
00002814  0000              add [eax],al
00002816  0000              add [eax],al
00002818  0000              add [eax],al
0000281A  0000              add [eax],al
0000281C  0000              add [eax],al
0000281E  0000              add [eax],al
00002820  0000              add [eax],al
00002822  0000              add [eax],al
00002824  0000              add [eax],al
00002826  0000              add [eax],al
00002828  0000              add [eax],al
0000282A  0000              add [eax],al
0000282C  0000              add [eax],al
0000282E  0000              add [eax],al
00002830  0000              add [eax],al
00002832  0000              add [eax],al
00002834  0000              add [eax],al
00002836  0000              add [eax],al
00002838  0000              add [eax],al
0000283A  0000              add [eax],al
0000283C  0000              add [eax],al
0000283E  0000              add [eax],al
00002840  0000              add [eax],al
00002842  0000              add [eax],al
00002844  0000              add [eax],al
00002846  0000              add [eax],al
00002848  0000              add [eax],al
0000284A  0000              add [eax],al
0000284C  0000              add [eax],al
0000284E  0000              add [eax],al
00002850  0000              add [eax],al
00002852  0000              add [eax],al
00002854  0000              add [eax],al
00002856  0000              add [eax],al
00002858  0000              add [eax],al
0000285A  0000              add [eax],al
0000285C  0000              add [eax],al
0000285E  0000              add [eax],al
00002860  0000              add [eax],al
00002862  0000              add [eax],al
00002864  0000              add [eax],al
00002866  0000              add [eax],al
00002868  0000              add [eax],al
0000286A  0000              add [eax],al
0000286C  0000              add [eax],al
0000286E  0000              add [eax],al
00002870  0000              add [eax],al
00002872  0000              add [eax],al
00002874  0000              add [eax],al
00002876  0000              add [eax],al
00002878  0000              add [eax],al
0000287A  0000              add [eax],al
0000287C  0000              add [eax],al
0000287E  0000              add [eax],al
00002880  0000              add [eax],al
00002882  0000              add [eax],al
00002884  0000              add [eax],al
00002886  0000              add [eax],al
00002888  0000              add [eax],al
0000288A  0000              add [eax],al
0000288C  0000              add [eax],al
0000288E  0000              add [eax],al
00002890  0000              add [eax],al
00002892  0000              add [eax],al
00002894  0000              add [eax],al
00002896  0000              add [eax],al
00002898  0000              add [eax],al
0000289A  0000              add [eax],al
0000289C  0000              add [eax],al
0000289E  0000              add [eax],al
000028A0  0000              add [eax],al
000028A2  0000              add [eax],al
000028A4  0000              add [eax],al
000028A6  0000              add [eax],al
000028A8  0000              add [eax],al
000028AA  0000              add [eax],al
000028AC  0000              add [eax],al
000028AE  0000              add [eax],al
000028B0  0000              add [eax],al
000028B2  0000              add [eax],al
000028B4  0000              add [eax],al
000028B6  0000              add [eax],al
000028B8  0000              add [eax],al
000028BA  0000              add [eax],al
000028BC  0000              add [eax],al
000028BE  0000              add [eax],al
000028C0  0000              add [eax],al
000028C2  0000              add [eax],al
000028C4  0000              add [eax],al
000028C6  0000              add [eax],al
000028C8  0000              add [eax],al
000028CA  0000              add [eax],al
000028CC  0000              add [eax],al
000028CE  0000              add [eax],al
000028D0  0000              add [eax],al
000028D2  0000              add [eax],al
000028D4  0000              add [eax],al
000028D6  0000              add [eax],al
000028D8  0000              add [eax],al
000028DA  0000              add [eax],al
000028DC  0000              add [eax],al
000028DE  0000              add [eax],al
000028E0  0000              add [eax],al
000028E2  0000              add [eax],al
000028E4  0000              add [eax],al
000028E6  0000              add [eax],al
000028E8  0000              add [eax],al
000028EA  0000              add [eax],al
000028EC  0000              add [eax],al
000028EE  0000              add [eax],al
000028F0  0000              add [eax],al
000028F2  0000              add [eax],al
000028F4  0000              add [eax],al
000028F6  0000              add [eax],al
000028F8  0000              add [eax],al
000028FA  0000              add [eax],al
000028FC  0000              add [eax],al
000028FE  0000              add [eax],al
00002900  0000              add [eax],al
00002902  0000              add [eax],al
00002904  0000              add [eax],al
00002906  0000              add [eax],al
00002908  0000              add [eax],al
0000290A  0000              add [eax],al
0000290C  0000              add [eax],al
0000290E  0000              add [eax],al
00002910  0000              add [eax],al
00002912  0000              add [eax],al
00002914  0000              add [eax],al
00002916  0000              add [eax],al
00002918  0000              add [eax],al
0000291A  0000              add [eax],al
0000291C  0000              add [eax],al
0000291E  0000              add [eax],al
00002920  0000              add [eax],al
00002922  0000              add [eax],al
00002924  0000              add [eax],al
00002926  0000              add [eax],al
00002928  0000              add [eax],al
0000292A  0000              add [eax],al
0000292C  0000              add [eax],al
0000292E  0000              add [eax],al
00002930  0000              add [eax],al
00002932  0000              add [eax],al
00002934  0000              add [eax],al
00002936  0000              add [eax],al
00002938  0000              add [eax],al
0000293A  0000              add [eax],al
0000293C  0000              add [eax],al
0000293E  0000              add [eax],al
00002940  0000              add [eax],al
00002942  0000              add [eax],al
00002944  0000              add [eax],al
00002946  0000              add [eax],al
00002948  0000              add [eax],al
0000294A  0000              add [eax],al
0000294C  0000              add [eax],al
0000294E  0000              add [eax],al
00002950  0000              add [eax],al
00002952  0000              add [eax],al
00002954  0000              add [eax],al
00002956  0000              add [eax],al
00002958  0000              add [eax],al
0000295A  0000              add [eax],al
0000295C  0000              add [eax],al
0000295E  0000              add [eax],al
00002960  0000              add [eax],al
00002962  0000              add [eax],al
00002964  0000              add [eax],al
00002966  0000              add [eax],al
00002968  0000              add [eax],al
0000296A  0000              add [eax],al
0000296C  0000              add [eax],al
0000296E  0000              add [eax],al
00002970  0000              add [eax],al
00002972  0000              add [eax],al
00002974  0000              add [eax],al
00002976  0000              add [eax],al
00002978  0000              add [eax],al
0000297A  0000              add [eax],al
0000297C  0000              add [eax],al
0000297E  0000              add [eax],al
00002980  0000              add [eax],al
00002982  0000              add [eax],al
00002984  0000              add [eax],al
00002986  0000              add [eax],al
00002988  0000              add [eax],al
0000298A  0000              add [eax],al
0000298C  0000              add [eax],al
0000298E  0000              add [eax],al
00002990  0000              add [eax],al
00002992  0000              add [eax],al
00002994  0000              add [eax],al
00002996  0000              add [eax],al
00002998  0000              add [eax],al
0000299A  0000              add [eax],al
0000299C  0000              add [eax],al
0000299E  0000              add [eax],al
000029A0  0000              add [eax],al
000029A2  0000              add [eax],al
000029A4  0000              add [eax],al
000029A6  0000              add [eax],al
000029A8  0000              add [eax],al
000029AA  0000              add [eax],al
000029AC  0000              add [eax],al
000029AE  0000              add [eax],al
000029B0  0000              add [eax],al
000029B2  0000              add [eax],al
000029B4  0000              add [eax],al
000029B6  0000              add [eax],al
000029B8  0000              add [eax],al
000029BA  0000              add [eax],al
000029BC  0000              add [eax],al
000029BE  0000              add [eax],al
000029C0  0000              add [eax],al
000029C2  0000              add [eax],al
000029C4  0000              add [eax],al
000029C6  0000              add [eax],al
000029C8  0000              add [eax],al
000029CA  0000              add [eax],al
000029CC  0000              add [eax],al
000029CE  0000              add [eax],al
000029D0  0000              add [eax],al
000029D2  0000              add [eax],al
000029D4  0000              add [eax],al
000029D6  0000              add [eax],al
000029D8  0000              add [eax],al
000029DA  0000              add [eax],al
000029DC  0000              add [eax],al
000029DE  0000              add [eax],al
000029E0  0000              add [eax],al
000029E2  0000              add [eax],al
000029E4  0000              add [eax],al
000029E6  0000              add [eax],al
000029E8  0000              add [eax],al
000029EA  0000              add [eax],al
000029EC  0000              add [eax],al
000029EE  0000              add [eax],al
000029F0  0000              add [eax],al
000029F2  0000              add [eax],al
000029F4  0000              add [eax],al
000029F6  0000              add [eax],al
000029F8  0000              add [eax],al
000029FA  0000              add [eax],al
000029FC  0000              add [eax],al
000029FE  0000              add [eax],al
00002A00  0000              add [eax],al
00002A02  0000              add [eax],al
00002A04  0000              add [eax],al
00002A06  0000              add [eax],al
00002A08  0000              add [eax],al
00002A0A  0000              add [eax],al
00002A0C  0000              add [eax],al
00002A0E  0000              add [eax],al
00002A10  0000              add [eax],al
00002A12  0000              add [eax],al
00002A14  0000              add [eax],al
00002A16  0000              add [eax],al
00002A18  0000              add [eax],al
00002A1A  0000              add [eax],al
00002A1C  0000              add [eax],al
00002A1E  0000              add [eax],al
00002A20  0000              add [eax],al
00002A22  0000              add [eax],al
00002A24  0000              add [eax],al
00002A26  0000              add [eax],al
00002A28  0000              add [eax],al
00002A2A  0000              add [eax],al
00002A2C  0000              add [eax],al
00002A2E  0000              add [eax],al
00002A30  0000              add [eax],al
00002A32  0000              add [eax],al
00002A34  0000              add [eax],al
00002A36  0000              add [eax],al
00002A38  0000              add [eax],al
00002A3A  0000              add [eax],al
00002A3C  0000              add [eax],al
00002A3E  0000              add [eax],al
00002A40  0000              add [eax],al
00002A42  0000              add [eax],al
00002A44  0000              add [eax],al
00002A46  0000              add [eax],al
00002A48  0000              add [eax],al
00002A4A  0000              add [eax],al
00002A4C  0000              add [eax],al
00002A4E  0000              add [eax],al
00002A50  0000              add [eax],al
00002A52  0000              add [eax],al
00002A54  0000              add [eax],al
00002A56  0000              add [eax],al
00002A58  0000              add [eax],al
00002A5A  0000              add [eax],al
00002A5C  0000              add [eax],al
00002A5E  0000              add [eax],al
00002A60  0000              add [eax],al
00002A62  0000              add [eax],al
00002A64  0000              add [eax],al
00002A66  0000              add [eax],al
00002A68  0000              add [eax],al
00002A6A  0000              add [eax],al
00002A6C  0000              add [eax],al
00002A6E  0000              add [eax],al
00002A70  0000              add [eax],al
00002A72  0000              add [eax],al
00002A74  0000              add [eax],al
00002A76  0000              add [eax],al
00002A78  0000              add [eax],al
00002A7A  0000              add [eax],al
00002A7C  0000              add [eax],al
00002A7E  0000              add [eax],al
00002A80  0000              add [eax],al
00002A82  0000              add [eax],al
00002A84  0000              add [eax],al
00002A86  0000              add [eax],al
00002A88  0000              add [eax],al
00002A8A  0000              add [eax],al
00002A8C  0000              add [eax],al
00002A8E  0000              add [eax],al
00002A90  0000              add [eax],al
00002A92  0000              add [eax],al
00002A94  0000              add [eax],al
00002A96  0000              add [eax],al
00002A98  0000              add [eax],al
00002A9A  0000              add [eax],al
00002A9C  0000              add [eax],al
00002A9E  0000              add [eax],al
00002AA0  0000              add [eax],al
00002AA2  0000              add [eax],al
00002AA4  0000              add [eax],al
00002AA6  0000              add [eax],al
00002AA8  0000              add [eax],al
00002AAA  0000              add [eax],al
00002AAC  0000              add [eax],al
00002AAE  0000              add [eax],al
00002AB0  0000              add [eax],al
00002AB2  0000              add [eax],al
00002AB4  0000              add [eax],al
00002AB6  0000              add [eax],al
00002AB8  0000              add [eax],al
00002ABA  0000              add [eax],al
00002ABC  0000              add [eax],al
00002ABE  0000              add [eax],al
00002AC0  0000              add [eax],al
00002AC2  0000              add [eax],al
00002AC4  0000              add [eax],al
00002AC6  0000              add [eax],al
00002AC8  0000              add [eax],al
00002ACA  0000              add [eax],al
00002ACC  0000              add [eax],al
00002ACE  0000              add [eax],al
00002AD0  0000              add [eax],al
00002AD2  0000              add [eax],al
00002AD4  0000              add [eax],al
00002AD6  0000              add [eax],al
00002AD8  0000              add [eax],al
00002ADA  0000              add [eax],al
00002ADC  0000              add [eax],al
00002ADE  0000              add [eax],al
00002AE0  0000              add [eax],al
00002AE2  0000              add [eax],al
00002AE4  0000              add [eax],al
00002AE6  0000              add [eax],al
00002AE8  0000              add [eax],al
00002AEA  0000              add [eax],al
00002AEC  0000              add [eax],al
00002AEE  0000              add [eax],al
00002AF0  0000              add [eax],al
00002AF2  0000              add [eax],al
00002AF4  0000              add [eax],al
00002AF6  0000              add [eax],al
00002AF8  0000              add [eax],al
00002AFA  0000              add [eax],al
00002AFC  0000              add [eax],al
00002AFE  0000              add [eax],al
00002B00  0000              add [eax],al
00002B02  0000              add [eax],al
00002B04  0000              add [eax],al
00002B06  0000              add [eax],al
00002B08  0000              add [eax],al
00002B0A  0000              add [eax],al
00002B0C  0000              add [eax],al
00002B0E  0000              add [eax],al
00002B10  0000              add [eax],al
00002B12  0000              add [eax],al
00002B14  0000              add [eax],al
00002B16  0000              add [eax],al
00002B18  0000              add [eax],al
00002B1A  0000              add [eax],al
00002B1C  0000              add [eax],al
00002B1E  0000              add [eax],al
00002B20  0000              add [eax],al
00002B22  0000              add [eax],al
00002B24  0000              add [eax],al
00002B26  0000              add [eax],al
00002B28  0000              add [eax],al
00002B2A  0000              add [eax],al
00002B2C  0000              add [eax],al
00002B2E  0000              add [eax],al
00002B30  0000              add [eax],al
00002B32  0000              add [eax],al
00002B34  0000              add [eax],al
00002B36  0000              add [eax],al
00002B38  0000              add [eax],al
00002B3A  0000              add [eax],al
00002B3C  0000              add [eax],al
00002B3E  0000              add [eax],al
00002B40  0000              add [eax],al
00002B42  0000              add [eax],al
00002B44  0000              add [eax],al
00002B46  0000              add [eax],al
00002B48  0000              add [eax],al
00002B4A  0000              add [eax],al
00002B4C  0000              add [eax],al
00002B4E  0000              add [eax],al
00002B50  0000              add [eax],al
00002B52  0000              add [eax],al
00002B54  0000              add [eax],al
00002B56  0000              add [eax],al
00002B58  0000              add [eax],al
00002B5A  0000              add [eax],al
00002B5C  0000              add [eax],al
00002B5E  0000              add [eax],al
00002B60  0000              add [eax],al
00002B62  0000              add [eax],al
00002B64  0000              add [eax],al
00002B66  0000              add [eax],al
00002B68  0000              add [eax],al
00002B6A  0000              add [eax],al
00002B6C  0000              add [eax],al
00002B6E  0000              add [eax],al
00002B70  0000              add [eax],al
00002B72  0000              add [eax],al
00002B74  0000              add [eax],al
00002B76  0000              add [eax],al
00002B78  0000              add [eax],al
00002B7A  0000              add [eax],al
00002B7C  0000              add [eax],al
00002B7E  0000              add [eax],al
00002B80  0000              add [eax],al
00002B82  0000              add [eax],al
00002B84  0000              add [eax],al
00002B86  0000              add [eax],al
00002B88  0000              add [eax],al
00002B8A  0000              add [eax],al
00002B8C  0000              add [eax],al
00002B8E  0000              add [eax],al
00002B90  0000              add [eax],al
00002B92  0000              add [eax],al
00002B94  0000              add [eax],al
00002B96  0000              add [eax],al
00002B98  0000              add [eax],al
00002B9A  0000              add [eax],al
00002B9C  0000              add [eax],al
00002B9E  0000              add [eax],al
00002BA0  0000              add [eax],al
00002BA2  0000              add [eax],al
00002BA4  0000              add [eax],al
00002BA6  0000              add [eax],al
00002BA8  0000              add [eax],al
00002BAA  0000              add [eax],al
00002BAC  0000              add [eax],al
00002BAE  0000              add [eax],al
00002BB0  0000              add [eax],al
00002BB2  0000              add [eax],al
00002BB4  0000              add [eax],al
00002BB6  0000              add [eax],al
00002BB8  0000              add [eax],al
00002BBA  0000              add [eax],al
00002BBC  0000              add [eax],al
00002BBE  0000              add [eax],al
00002BC0  0000              add [eax],al
00002BC2  0000              add [eax],al
00002BC4  0000              add [eax],al
00002BC6  0000              add [eax],al
00002BC8  0000              add [eax],al
00002BCA  0000              add [eax],al
00002BCC  0000              add [eax],al
00002BCE  0000              add [eax],al
00002BD0  0000              add [eax],al
00002BD2  0000              add [eax],al
00002BD4  0000              add [eax],al
00002BD6  0000              add [eax],al
00002BD8  0000              add [eax],al
00002BDA  0000              add [eax],al
00002BDC  0000              add [eax],al
00002BDE  0000              add [eax],al
00002BE0  0000              add [eax],al
00002BE2  0000              add [eax],al
00002BE4  0000              add [eax],al
00002BE6  0000              add [eax],al
00002BE8  0000              add [eax],al
00002BEA  0000              add [eax],al
00002BEC  0000              add [eax],al
00002BEE  0000              add [eax],al
00002BF0  0000              add [eax],al
00002BF2  0000              add [eax],al
00002BF4  0000              add [eax],al
00002BF6  0000              add [eax],al
00002BF8  0000              add [eax],al
00002BFA  0000              add [eax],al
00002BFC  0000              add [eax],al
00002BFE  0000              add [eax],al
00002C00  0000              add [eax],al
00002C02  0000              add [eax],al
00002C04  0000              add [eax],al
00002C06  0000              add [eax],al
00002C08  0000              add [eax],al
00002C0A  0000              add [eax],al
00002C0C  0000              add [eax],al
00002C0E  0000              add [eax],al
00002C10  0000              add [eax],al
00002C12  0000              add [eax],al
00002C14  0000              add [eax],al
00002C16  0000              add [eax],al
00002C18  0000              add [eax],al
00002C1A  0000              add [eax],al
00002C1C  0000              add [eax],al
00002C1E  0000              add [eax],al
00002C20  0000              add [eax],al
00002C22  0000              add [eax],al
00002C24  0000              add [eax],al
00002C26  0000              add [eax],al
00002C28  0000              add [eax],al
00002C2A  0000              add [eax],al
00002C2C  0000              add [eax],al
00002C2E  0000              add [eax],al
00002C30  0000              add [eax],al
00002C32  0000              add [eax],al
00002C34  0000              add [eax],al
00002C36  0000              add [eax],al
00002C38  0000              add [eax],al
00002C3A  0000              add [eax],al
00002C3C  0000              add [eax],al
00002C3E  0000              add [eax],al
00002C40  0000              add [eax],al
00002C42  0000              add [eax],al
00002C44  0000              add [eax],al
00002C46  0000              add [eax],al
00002C48  0000              add [eax],al
00002C4A  0000              add [eax],al
00002C4C  0000              add [eax],al
00002C4E  0000              add [eax],al
00002C50  0000              add [eax],al
00002C52  0000              add [eax],al
00002C54  0000              add [eax],al
00002C56  0000              add [eax],al
00002C58  0000              add [eax],al
00002C5A  0000              add [eax],al
00002C5C  0000              add [eax],al
00002C5E  0000              add [eax],al
00002C60  0000              add [eax],al
00002C62  0000              add [eax],al
00002C64  0000              add [eax],al
00002C66  0000              add [eax],al
00002C68  0000              add [eax],al
00002C6A  0000              add [eax],al
00002C6C  0000              add [eax],al
00002C6E  0000              add [eax],al
00002C70  0000              add [eax],al
00002C72  0000              add [eax],al
00002C74  0000              add [eax],al
00002C76  0000              add [eax],al
00002C78  0000              add [eax],al
00002C7A  0000              add [eax],al
00002C7C  0000              add [eax],al
00002C7E  0000              add [eax],al
00002C80  0000              add [eax],al
00002C82  0000              add [eax],al
00002C84  0000              add [eax],al
00002C86  0000              add [eax],al
00002C88  0000              add [eax],al
00002C8A  0000              add [eax],al
00002C8C  0000              add [eax],al
00002C8E  0000              add [eax],al
00002C90  0000              add [eax],al
00002C92  0000              add [eax],al
00002C94  0000              add [eax],al
00002C96  0000              add [eax],al
00002C98  0000              add [eax],al
00002C9A  0000              add [eax],al
00002C9C  0000              add [eax],al
00002C9E  0000              add [eax],al
00002CA0  0000              add [eax],al
00002CA2  0000              add [eax],al
00002CA4  0000              add [eax],al
00002CA6  0000              add [eax],al
00002CA8  0000              add [eax],al
00002CAA  0000              add [eax],al
00002CAC  0000              add [eax],al
00002CAE  0000              add [eax],al
00002CB0  0000              add [eax],al
00002CB2  0000              add [eax],al
00002CB4  0000              add [eax],al
00002CB6  0000              add [eax],al
00002CB8  0000              add [eax],al
00002CBA  0000              add [eax],al
00002CBC  0000              add [eax],al
00002CBE  0000              add [eax],al
00002CC0  0000              add [eax],al
00002CC2  0000              add [eax],al
00002CC4  0000              add [eax],al
00002CC6  0000              add [eax],al
00002CC8  0000              add [eax],al
00002CCA  0000              add [eax],al
00002CCC  0000              add [eax],al
00002CCE  0000              add [eax],al
00002CD0  0000              add [eax],al
00002CD2  0000              add [eax],al
00002CD4  0000              add [eax],al
00002CD6  0000              add [eax],al
00002CD8  0000              add [eax],al
00002CDA  0000              add [eax],al
00002CDC  0000              add [eax],al
00002CDE  0000              add [eax],al
00002CE0  0000              add [eax],al
00002CE2  0000              add [eax],al
00002CE4  0000              add [eax],al
00002CE6  0000              add [eax],al
00002CE8  0000              add [eax],al
00002CEA  0000              add [eax],al
00002CEC  0000              add [eax],al
00002CEE  0000              add [eax],al
00002CF0  0000              add [eax],al
00002CF2  0000              add [eax],al
00002CF4  0000              add [eax],al
00002CF6  0000              add [eax],al
00002CF8  0000              add [eax],al
00002CFA  0000              add [eax],al
00002CFC  0000              add [eax],al
00002CFE  0000              add [eax],al
00002D00  0000              add [eax],al
00002D02  0000              add [eax],al
00002D04  0000              add [eax],al
00002D06  0000              add [eax],al
00002D08  0000              add [eax],al
00002D0A  0000              add [eax],al
00002D0C  0000              add [eax],al
00002D0E  0000              add [eax],al
00002D10  0000              add [eax],al
00002D12  0000              add [eax],al
00002D14  0000              add [eax],al
00002D16  0000              add [eax],al
00002D18  0000              add [eax],al
00002D1A  0000              add [eax],al
00002D1C  0000              add [eax],al
00002D1E  0000              add [eax],al
00002D20  0000              add [eax],al
00002D22  0000              add [eax],al
00002D24  0000              add [eax],al
00002D26  0000              add [eax],al
00002D28  0000              add [eax],al
00002D2A  0000              add [eax],al
00002D2C  0000              add [eax],al
00002D2E  0000              add [eax],al
00002D30  0000              add [eax],al
00002D32  0000              add [eax],al
00002D34  0000              add [eax],al
00002D36  0000              add [eax],al
00002D38  0000              add [eax],al
00002D3A  0000              add [eax],al
00002D3C  0000              add [eax],al
00002D3E  0000              add [eax],al
00002D40  0000              add [eax],al
00002D42  0000              add [eax],al
00002D44  0000              add [eax],al
00002D46  0000              add [eax],al
00002D48  0000              add [eax],al
00002D4A  0000              add [eax],al
00002D4C  0000              add [eax],al
00002D4E  0000              add [eax],al
00002D50  0000              add [eax],al
00002D52  0000              add [eax],al
00002D54  0000              add [eax],al
00002D56  0000              add [eax],al
00002D58  0000              add [eax],al
00002D5A  0000              add [eax],al
00002D5C  0000              add [eax],al
00002D5E  0000              add [eax],al
00002D60  0000              add [eax],al
00002D62  0000              add [eax],al
00002D64  0000              add [eax],al
00002D66  0000              add [eax],al
00002D68  0000              add [eax],al
00002D6A  0000              add [eax],al
00002D6C  0000              add [eax],al
00002D6E  0000              add [eax],al
00002D70  0000              add [eax],al
00002D72  0000              add [eax],al
00002D74  0000              add [eax],al
00002D76  0000              add [eax],al
00002D78  0000              add [eax],al
00002D7A  0000              add [eax],al
00002D7C  0000              add [eax],al
00002D7E  0000              add [eax],al
00002D80  0000              add [eax],al
00002D82  0000              add [eax],al
00002D84  0000              add [eax],al
00002D86  0000              add [eax],al
00002D88  0000              add [eax],al
00002D8A  0000              add [eax],al
00002D8C  0000              add [eax],al
00002D8E  0000              add [eax],al
00002D90  0000              add [eax],al
00002D92  0000              add [eax],al
00002D94  0000              add [eax],al
00002D96  0000              add [eax],al
00002D98  0000              add [eax],al
00002D9A  0000              add [eax],al
00002D9C  0000              add [eax],al
00002D9E  0000              add [eax],al
00002DA0  0000              add [eax],al
00002DA2  0000              add [eax],al
00002DA4  0000              add [eax],al
00002DA6  0000              add [eax],al
00002DA8  0000              add [eax],al
00002DAA  0000              add [eax],al
00002DAC  0000              add [eax],al
00002DAE  0000              add [eax],al
00002DB0  0000              add [eax],al
00002DB2  0000              add [eax],al
00002DB4  0000              add [eax],al
00002DB6  0000              add [eax],al
00002DB8  0000              add [eax],al
00002DBA  0000              add [eax],al
00002DBC  0000              add [eax],al
00002DBE  0000              add [eax],al
00002DC0  0000              add [eax],al
00002DC2  0000              add [eax],al
00002DC4  0000              add [eax],al
00002DC6  0000              add [eax],al
00002DC8  0000              add [eax],al
00002DCA  0000              add [eax],al
00002DCC  0000              add [eax],al
00002DCE  0000              add [eax],al
00002DD0  0000              add [eax],al
00002DD2  0000              add [eax],al
00002DD4  0000              add [eax],al
00002DD6  0000              add [eax],al
00002DD8  0000              add [eax],al
00002DDA  0000              add [eax],al
00002DDC  0000              add [eax],al
00002DDE  0000              add [eax],al
00002DE0  0000              add [eax],al
00002DE2  0000              add [eax],al
00002DE4  0000              add [eax],al
00002DE6  0000              add [eax],al
00002DE8  0000              add [eax],al
00002DEA  0000              add [eax],al
00002DEC  0000              add [eax],al
00002DEE  0000              add [eax],al
00002DF0  0000              add [eax],al
00002DF2  0000              add [eax],al
00002DF4  0000              add [eax],al
00002DF6  0000              add [eax],al
00002DF8  0000              add [eax],al
00002DFA  0000              add [eax],al
00002DFC  0000              add [eax],al
00002DFE  0000              add [eax],al
00002E00  0000              add [eax],al
00002E02  0000              add [eax],al
00002E04  0000              add [eax],al
00002E06  0000              add [eax],al
00002E08  0000              add [eax],al
00002E0A  0000              add [eax],al
00002E0C  0000              add [eax],al
00002E0E  0000              add [eax],al
00002E10  0000              add [eax],al
00002E12  0000              add [eax],al
00002E14  0000              add [eax],al
00002E16  0000              add [eax],al
00002E18  0000              add [eax],al
00002E1A  0000              add [eax],al
00002E1C  0000              add [eax],al
00002E1E  0000              add [eax],al
00002E20  0000              add [eax],al
00002E22  0000              add [eax],al
00002E24  0000              add [eax],al
00002E26  0000              add [eax],al
00002E28  0000              add [eax],al
00002E2A  0000              add [eax],al
00002E2C  0000              add [eax],al
00002E2E  0000              add [eax],al
00002E30  0000              add [eax],al
00002E32  0000              add [eax],al
00002E34  0000              add [eax],al
00002E36  0000              add [eax],al
00002E38  0000              add [eax],al
00002E3A  0000              add [eax],al
00002E3C  0000              add [eax],al
00002E3E  0000              add [eax],al
00002E40  0000              add [eax],al
00002E42  0000              add [eax],al
00002E44  0000              add [eax],al
00002E46  0000              add [eax],al
00002E48  0000              add [eax],al
00002E4A  0000              add [eax],al
00002E4C  0000              add [eax],al
00002E4E  0000              add [eax],al
00002E50  0000              add [eax],al
00002E52  0000              add [eax],al
00002E54  0000              add [eax],al
00002E56  0000              add [eax],al
00002E58  0000              add [eax],al
00002E5A  0000              add [eax],al
00002E5C  0000              add [eax],al
00002E5E  0000              add [eax],al
00002E60  0000              add [eax],al
00002E62  0000              add [eax],al
00002E64  0000              add [eax],al
00002E66  0000              add [eax],al
00002E68  0000              add [eax],al
00002E6A  0000              add [eax],al
00002E6C  0000              add [eax],al
00002E6E  0000              add [eax],al
00002E70  0000              add [eax],al
00002E72  0000              add [eax],al
00002E74  0000              add [eax],al
00002E76  0000              add [eax],al
00002E78  0000              add [eax],al
00002E7A  0000              add [eax],al
00002E7C  0000              add [eax],al
00002E7E  0000              add [eax],al
00002E80  0000              add [eax],al
00002E82  0000              add [eax],al
00002E84  0000              add [eax],al
00002E86  0000              add [eax],al
00002E88  0000              add [eax],al
00002E8A  0000              add [eax],al
00002E8C  0000              add [eax],al
00002E8E  0000              add [eax],al
00002E90  0000              add [eax],al
00002E92  0000              add [eax],al
00002E94  0000              add [eax],al
00002E96  0000              add [eax],al
00002E98  0000              add [eax],al
00002E9A  0000              add [eax],al
00002E9C  0000              add [eax],al
00002E9E  0000              add [eax],al
00002EA0  0000              add [eax],al
00002EA2  0000              add [eax],al
00002EA4  0000              add [eax],al
00002EA6  0000              add [eax],al
00002EA8  0000              add [eax],al
00002EAA  0000              add [eax],al
00002EAC  0000              add [eax],al
00002EAE  0000              add [eax],al
00002EB0  0000              add [eax],al
00002EB2  0000              add [eax],al
00002EB4  0000              add [eax],al
00002EB6  0000              add [eax],al
00002EB8  0000              add [eax],al
00002EBA  0000              add [eax],al
00002EBC  0000              add [eax],al
00002EBE  0000              add [eax],al
00002EC0  0000              add [eax],al
00002EC2  0000              add [eax],al
00002EC4  0000              add [eax],al
00002EC6  0000              add [eax],al
00002EC8  0000              add [eax],al
00002ECA  0000              add [eax],al
00002ECC  0000              add [eax],al
00002ECE  0000              add [eax],al
00002ED0  0000              add [eax],al
00002ED2  0000              add [eax],al
00002ED4  0000              add [eax],al
00002ED6  0000              add [eax],al
00002ED8  0000              add [eax],al
00002EDA  0000              add [eax],al
00002EDC  0000              add [eax],al
00002EDE  0000              add [eax],al
00002EE0  0000              add [eax],al
00002EE2  0000              add [eax],al
00002EE4  0000              add [eax],al
00002EE6  0000              add [eax],al
00002EE8  0000              add [eax],al
00002EEA  0000              add [eax],al
00002EEC  0000              add [eax],al
00002EEE  0000              add [eax],al
00002EF0  0000              add [eax],al
00002EF2  0000              add [eax],al
00002EF4  0000              add [eax],al
00002EF6  0000              add [eax],al
00002EF8  0000              add [eax],al
00002EFA  0000              add [eax],al
00002EFC  0000              add [eax],al
00002EFE  0000              add [eax],al
00002F00  0000              add [eax],al
00002F02  0000              add [eax],al
00002F04  0000              add [eax],al
00002F06  0000              add [eax],al
00002F08  0000              add [eax],al
00002F0A  0000              add [eax],al
00002F0C  0000              add [eax],al
00002F0E  0000              add [eax],al
00002F10  0000              add [eax],al
00002F12  0000              add [eax],al
00002F14  0000              add [eax],al
00002F16  0000              add [eax],al
00002F18  0000              add [eax],al
00002F1A  0000              add [eax],al
00002F1C  0000              add [eax],al
00002F1E  0000              add [eax],al
00002F20  0000              add [eax],al
00002F22  0000              add [eax],al
00002F24  0000              add [eax],al
00002F26  0000              add [eax],al
00002F28  0000              add [eax],al
00002F2A  0000              add [eax],al
00002F2C  0000              add [eax],al
00002F2E  0000              add [eax],al
00002F30  0000              add [eax],al
00002F32  0000              add [eax],al
00002F34  0000              add [eax],al
00002F36  0000              add [eax],al
00002F38  0000              add [eax],al
00002F3A  0000              add [eax],al
00002F3C  0000              add [eax],al
00002F3E  0000              add [eax],al
00002F40  0000              add [eax],al
00002F42  0000              add [eax],al
00002F44  0000              add [eax],al
00002F46  0000              add [eax],al
00002F48  0000              add [eax],al
00002F4A  0000              add [eax],al
00002F4C  0000              add [eax],al
00002F4E  0000              add [eax],al
00002F50  0000              add [eax],al
00002F52  0000              add [eax],al
00002F54  0000              add [eax],al
00002F56  0000              add [eax],al
00002F58  0000              add [eax],al
00002F5A  0000              add [eax],al
00002F5C  0000              add [eax],al
00002F5E  0000              add [eax],al
00002F60  0000              add [eax],al
00002F62  0000              add [eax],al
00002F64  0000              add [eax],al
00002F66  0000              add [eax],al
00002F68  0000              add [eax],al
00002F6A  0000              add [eax],al
00002F6C  0000              add [eax],al
00002F6E  0000              add [eax],al
00002F70  0000              add [eax],al
00002F72  0000              add [eax],al
00002F74  0000              add [eax],al
00002F76  0000              add [eax],al
00002F78  0000              add [eax],al
00002F7A  0000              add [eax],al
00002F7C  0000              add [eax],al
00002F7E  0000              add [eax],al
00002F80  0000              add [eax],al
00002F82  0000              add [eax],al
00002F84  0000              add [eax],al
00002F86  0000              add [eax],al
00002F88  0000              add [eax],al
00002F8A  0000              add [eax],al
00002F8C  0000              add [eax],al
00002F8E  0000              add [eax],al
00002F90  0000              add [eax],al
00002F92  0000              add [eax],al
00002F94  0000              add [eax],al
00002F96  0000              add [eax],al
00002F98  0000              add [eax],al
00002F9A  0000              add [eax],al
00002F9C  0000              add [eax],al
00002F9E  0000              add [eax],al
00002FA0  0000              add [eax],al
00002FA2  0000              add [eax],al
00002FA4  0000              add [eax],al
00002FA6  0000              add [eax],al
00002FA8  0000              add [eax],al
00002FAA  0000              add [eax],al
00002FAC  0000              add [eax],al
00002FAE  0000              add [eax],al
00002FB0  0000              add [eax],al
00002FB2  0000              add [eax],al
00002FB4  0000              add [eax],al
00002FB6  0000              add [eax],al
00002FB8  0000              add [eax],al
00002FBA  0000              add [eax],al
00002FBC  0000              add [eax],al
00002FBE  0000              add [eax],al
00002FC0  0000              add [eax],al
00002FC2  0000              add [eax],al
00002FC4  0000              add [eax],al
00002FC6  0000              add [eax],al
00002FC8  0000              add [eax],al
00002FCA  0000              add [eax],al
00002FCC  0000              add [eax],al
00002FCE  0000              add [eax],al
00002FD0  0000              add [eax],al
00002FD2  0000              add [eax],al
00002FD4  0000              add [eax],al
00002FD6  0000              add [eax],al
00002FD8  0000              add [eax],al
00002FDA  0000              add [eax],al
00002FDC  0000              add [eax],al
00002FDE  0000              add [eax],al
00002FE0  0000              add [eax],al
00002FE2  0000              add [eax],al
00002FE4  0000              add [eax],al
00002FE6  0000              add [eax],al
00002FE8  0000              add [eax],al
00002FEA  0000              add [eax],al
00002FEC  0000              add [eax],al
00002FEE  0000              add [eax],al
00002FF0  0000              add [eax],al
00002FF2  0000              add [eax],al
00002FF4  0000              add [eax],al
00002FF6  0000              add [eax],al
00002FF8  0000              add [eax],al
00002FFA  0000              add [eax],al
00002FFC  0000              add [eax],al
00002FFE  0000              add [eax],al
00003000  0000              add [eax],al
00003002  0000              add [eax],al
00003004  0000              add [eax],al
00003006  0000              add [eax],al
00003008  0000              add [eax],al
0000300A  0000              add [eax],al
0000300C  0000              add [eax],al
0000300E  0000              add [eax],al
00003010  0000              add [eax],al
00003012  0000              add [eax],al
00003014  0000              add [eax],al
00003016  0000              add [eax],al
00003018  0000              add [eax],al
0000301A  0000              add [eax],al
0000301C  0000              add [eax],al
0000301E  0000              add [eax],al
00003020  0000              add [eax],al
00003022  0000              add [eax],al
00003024  0000              add [eax],al
00003026  0000              add [eax],al
00003028  0000              add [eax],al
0000302A  0000              add [eax],al
0000302C  0000              add [eax],al
0000302E  0000              add [eax],al
00003030  0000              add [eax],al
00003032  0000              add [eax],al
00003034  0000              add [eax],al
00003036  0000              add [eax],al
00003038  0000              add [eax],al
0000303A  0000              add [eax],al
0000303C  0000              add [eax],al
0000303E  0000              add [eax],al
00003040  0000              add [eax],al
00003042  0000              add [eax],al
00003044  0000              add [eax],al
00003046  0000              add [eax],al
00003048  0000              add [eax],al
0000304A  0000              add [eax],al
0000304C  0000              add [eax],al
0000304E  0000              add [eax],al
00003050  0000              add [eax],al
00003052  0000              add [eax],al
00003054  0000              add [eax],al
00003056  0000              add [eax],al
00003058  0000              add [eax],al
0000305A  0000              add [eax],al
0000305C  0000              add [eax],al
0000305E  0000              add [eax],al
00003060  0000              add [eax],al
00003062  0000              add [eax],al
00003064  0000              add [eax],al
00003066  0000              add [eax],al
00003068  0000              add [eax],al
0000306A  0000              add [eax],al
0000306C  0000              add [eax],al
0000306E  0000              add [eax],al
00003070  0000              add [eax],al
00003072  0000              add [eax],al
00003074  0000              add [eax],al
00003076  0000              add [eax],al
00003078  0000              add [eax],al
0000307A  0000              add [eax],al
0000307C  0000              add [eax],al
0000307E  0000              add [eax],al
00003080  0000              add [eax],al
00003082  0000              add [eax],al
00003084  0000              add [eax],al
00003086  0000              add [eax],al
00003088  0000              add [eax],al
0000308A  0000              add [eax],al
0000308C  0000              add [eax],al
0000308E  0000              add [eax],al
00003090  0000              add [eax],al
00003092  0000              add [eax],al
00003094  0000              add [eax],al
00003096  0000              add [eax],al
00003098  0000              add [eax],al
0000309A  0000              add [eax],al
0000309C  0000              add [eax],al
0000309E  0000              add [eax],al
000030A0  0000              add [eax],al
000030A2  0000              add [eax],al
000030A4  0000              add [eax],al
000030A6  0000              add [eax],al
000030A8  0000              add [eax],al
000030AA  0000              add [eax],al
000030AC  0000              add [eax],al
000030AE  0000              add [eax],al
000030B0  0000              add [eax],al
000030B2  0000              add [eax],al
000030B4  0000              add [eax],al
000030B6  0000              add [eax],al
000030B8  0000              add [eax],al
000030BA  0000              add [eax],al
000030BC  0000              add [eax],al
000030BE  0000              add [eax],al
000030C0  0000              add [eax],al
000030C2  0000              add [eax],al
000030C4  0000              add [eax],al
000030C6  0000              add [eax],al
000030C8  0000              add [eax],al
000030CA  0000              add [eax],al
000030CC  0000              add [eax],al
000030CE  0000              add [eax],al
000030D0  0000              add [eax],al
000030D2  0000              add [eax],al
000030D4  0000              add [eax],al
000030D6  0000              add [eax],al
000030D8  0000              add [eax],al
000030DA  0000              add [eax],al
000030DC  0000              add [eax],al
000030DE  0000              add [eax],al
000030E0  0000              add [eax],al
000030E2  0000              add [eax],al
000030E4  0000              add [eax],al
000030E6  0000              add [eax],al
000030E8  0000              add [eax],al
000030EA  0000              add [eax],al
000030EC  0000              add [eax],al
000030EE  0000              add [eax],al
000030F0  0000              add [eax],al
000030F2  0000              add [eax],al
000030F4  0000              add [eax],al
000030F6  0000              add [eax],al
000030F8  0000              add [eax],al
000030FA  0000              add [eax],al
000030FC  0000              add [eax],al
000030FE  0000              add [eax],al
00003100  0000              add [eax],al
00003102  0000              add [eax],al
00003104  0000              add [eax],al
00003106  0000              add [eax],al
00003108  0000              add [eax],al
0000310A  0000              add [eax],al
0000310C  0000              add [eax],al
0000310E  0000              add [eax],al
00003110  0000              add [eax],al
00003112  0000              add [eax],al
00003114  0000              add [eax],al
00003116  0000              add [eax],al
00003118  0000              add [eax],al
0000311A  0000              add [eax],al
0000311C  0000              add [eax],al
0000311E  0000              add [eax],al
00003120  0000              add [eax],al
00003122  0000              add [eax],al
00003124  0000              add [eax],al
00003126  0000              add [eax],al
00003128  0000              add [eax],al
0000312A  0000              add [eax],al
0000312C  0000              add [eax],al
0000312E  0000              add [eax],al
00003130  0000              add [eax],al
00003132  0000              add [eax],al
00003134  0000              add [eax],al
00003136  0000              add [eax],al
00003138  0000              add [eax],al
0000313A  0000              add [eax],al
0000313C  0000              add [eax],al
0000313E  0000              add [eax],al
00003140  0000              add [eax],al
00003142  0000              add [eax],al
00003144  0000              add [eax],al
00003146  0000              add [eax],al
00003148  0000              add [eax],al
0000314A  0000              add [eax],al
0000314C  0000              add [eax],al
0000314E  0000              add [eax],al
00003150  0000              add [eax],al
00003152  0000              add [eax],al
00003154  0000              add [eax],al
00003156  0000              add [eax],al
00003158  0000              add [eax],al
0000315A  0000              add [eax],al
0000315C  0000              add [eax],al
0000315E  0000              add [eax],al
00003160  0000              add [eax],al
00003162  0000              add [eax],al
00003164  0000              add [eax],al
00003166  0000              add [eax],al
00003168  0000              add [eax],al
0000316A  0000              add [eax],al
0000316C  0000              add [eax],al
0000316E  0000              add [eax],al
00003170  0000              add [eax],al
00003172  0000              add [eax],al
00003174  0000              add [eax],al
00003176  0000              add [eax],al
00003178  0000              add [eax],al
0000317A  0000              add [eax],al
0000317C  0000              add [eax],al
0000317E  0000              add [eax],al
00003180  0000              add [eax],al
00003182  0000              add [eax],al
00003184  0000              add [eax],al
00003186  0000              add [eax],al
00003188  0000              add [eax],al
0000318A  0000              add [eax],al
0000318C  0000              add [eax],al
0000318E  0000              add [eax],al
00003190  0000              add [eax],al
00003192  0000              add [eax],al
00003194  0000              add [eax],al
00003196  0000              add [eax],al
00003198  0000              add [eax],al
0000319A  0000              add [eax],al
0000319C  0000              add [eax],al
0000319E  0000              add [eax],al
000031A0  0000              add [eax],al
000031A2  0000              add [eax],al
000031A4  0000              add [eax],al
000031A6  0000              add [eax],al
000031A8  0000              add [eax],al
000031AA  0000              add [eax],al
000031AC  0000              add [eax],al
000031AE  0000              add [eax],al
000031B0  0000              add [eax],al
000031B2  0000              add [eax],al
000031B4  0000              add [eax],al
000031B6  0000              add [eax],al
000031B8  0000              add [eax],al
000031BA  0000              add [eax],al
000031BC  0000              add [eax],al
000031BE  0000              add [eax],al
000031C0  0000              add [eax],al
000031C2  0000              add [eax],al
000031C4  0000              add [eax],al
000031C6  0000              add [eax],al
000031C8  0000              add [eax],al
000031CA  0000              add [eax],al
000031CC  0000              add [eax],al
000031CE  0000              add [eax],al
000031D0  0000              add [eax],al
000031D2  0000              add [eax],al
000031D4  0000              add [eax],al
000031D6  0000              add [eax],al
000031D8  0000              add [eax],al
000031DA  0000              add [eax],al
000031DC  0000              add [eax],al
000031DE  0000              add [eax],al
000031E0  0000              add [eax],al
000031E2  0000              add [eax],al
000031E4  0000              add [eax],al
000031E6  0000              add [eax],al
000031E8  0000              add [eax],al
000031EA  0000              add [eax],al
000031EC  0000              add [eax],al
000031EE  0000              add [eax],al
000031F0  0000              add [eax],al
000031F2  0000              add [eax],al
000031F4  0000              add [eax],al
000031F6  0000              add [eax],al
000031F8  0000              add [eax],al
000031FA  0000              add [eax],al
000031FC  0000              add [eax],al
000031FE  0000              add [eax],al
00003200  0000              add [eax],al
00003202  0000              add [eax],al
00003204  0000              add [eax],al
00003206  0000              add [eax],al
00003208  0000              add [eax],al
0000320A  0000              add [eax],al
0000320C  0000              add [eax],al
0000320E  0000              add [eax],al
00003210  0000              add [eax],al
00003212  0000              add [eax],al
00003214  0000              add [eax],al
00003216  0000              add [eax],al
00003218  0000              add [eax],al
0000321A  0000              add [eax],al
0000321C  0000              add [eax],al
0000321E  0000              add [eax],al
00003220  0000              add [eax],al
00003222  0000              add [eax],al
00003224  0000              add [eax],al
00003226  0000              add [eax],al
00003228  0000              add [eax],al
0000322A  0000              add [eax],al
0000322C  0000              add [eax],al
0000322E  0000              add [eax],al
00003230  0000              add [eax],al
00003232  0000              add [eax],al
00003234  0000              add [eax],al
00003236  0000              add [eax],al
00003238  0000              add [eax],al
0000323A  0000              add [eax],al
0000323C  0000              add [eax],al
0000323E  0000              add [eax],al
00003240  0000              add [eax],al
00003242  0000              add [eax],al
00003244  0000              add [eax],al
00003246  0000              add [eax],al
00003248  0000              add [eax],al
0000324A  0000              add [eax],al
0000324C  0000              add [eax],al
0000324E  0000              add [eax],al
00003250  0000              add [eax],al
00003252  0000              add [eax],al
00003254  0000              add [eax],al
00003256  0000              add [eax],al
00003258  0000              add [eax],al
0000325A  0000              add [eax],al
0000325C  0000              add [eax],al
0000325E  0000              add [eax],al
00003260  0000              add [eax],al
00003262  0000              add [eax],al
00003264  0000              add [eax],al
00003266  0000              add [eax],al
00003268  0000              add [eax],al
0000326A  0000              add [eax],al
0000326C  0000              add [eax],al
0000326E  0000              add [eax],al
00003270  0000              add [eax],al
00003272  0000              add [eax],al
00003274  0000              add [eax],al
00003276  0000              add [eax],al
00003278  0000              add [eax],al
0000327A  0000              add [eax],al
0000327C  0000              add [eax],al
0000327E  0000              add [eax],al
00003280  0000              add [eax],al
00003282  0000              add [eax],al
00003284  0000              add [eax],al
00003286  0000              add [eax],al
00003288  0000              add [eax],al
0000328A  0000              add [eax],al
0000328C  0000              add [eax],al
0000328E  0000              add [eax],al
00003290  0000              add [eax],al
00003292  0000              add [eax],al
00003294  0000              add [eax],al
00003296  0000              add [eax],al
00003298  0000              add [eax],al
0000329A  0000              add [eax],al
0000329C  0000              add [eax],al
0000329E  0000              add [eax],al
000032A0  0000              add [eax],al
000032A2  0000              add [eax],al
000032A4  0000              add [eax],al
000032A6  0000              add [eax],al
000032A8  0000              add [eax],al
000032AA  0000              add [eax],al
000032AC  0000              add [eax],al
000032AE  0000              add [eax],al
000032B0  0000              add [eax],al
000032B2  0000              add [eax],al
000032B4  0000              add [eax],al
000032B6  0000              add [eax],al
000032B8  0000              add [eax],al
000032BA  0000              add [eax],al
000032BC  0000              add [eax],al
000032BE  0000              add [eax],al
000032C0  0000              add [eax],al
000032C2  0000              add [eax],al
000032C4  0000              add [eax],al
000032C6  0000              add [eax],al
000032C8  0000              add [eax],al
000032CA  0000              add [eax],al
000032CC  0000              add [eax],al
000032CE  0000              add [eax],al
000032D0  0000              add [eax],al
000032D2  0000              add [eax],al
000032D4  0000              add [eax],al
000032D6  0000              add [eax],al
000032D8  0000              add [eax],al
000032DA  0000              add [eax],al
000032DC  0000              add [eax],al
000032DE  0000              add [eax],al
000032E0  0000              add [eax],al
000032E2  0000              add [eax],al
000032E4  0000              add [eax],al
000032E6  0000              add [eax],al
000032E8  0000              add [eax],al
000032EA  0000              add [eax],al
000032EC  0000              add [eax],al
000032EE  0000              add [eax],al
000032F0  0000              add [eax],al
000032F2  0000              add [eax],al
000032F4  0000              add [eax],al
000032F6  0000              add [eax],al
000032F8  0000              add [eax],al
000032FA  0000              add [eax],al
000032FC  0000              add [eax],al
000032FE  0000              add [eax],al
00003300  0000              add [eax],al
00003302  0000              add [eax],al
00003304  0000              add [eax],al
00003306  0000              add [eax],al
00003308  0000              add [eax],al
0000330A  0000              add [eax],al
0000330C  0000              add [eax],al
0000330E  0000              add [eax],al
00003310  0000              add [eax],al
00003312  0000              add [eax],al
00003314  0000              add [eax],al
00003316  0000              add [eax],al
00003318  0000              add [eax],al
0000331A  0000              add [eax],al
0000331C  0000              add [eax],al
0000331E  0000              add [eax],al
00003320  0000              add [eax],al
00003322  0000              add [eax],al
00003324  0000              add [eax],al
00003326  0000              add [eax],al
00003328  0000              add [eax],al
0000332A  0000              add [eax],al
0000332C  0000              add [eax],al
0000332E  0000              add [eax],al
00003330  0000              add [eax],al
00003332  0000              add [eax],al
00003334  0000              add [eax],al
00003336  0000              add [eax],al
00003338  0000              add [eax],al
0000333A  0000              add [eax],al
0000333C  0000              add [eax],al
0000333E  0000              add [eax],al
00003340  0000              add [eax],al
00003342  0000              add [eax],al
00003344  0000              add [eax],al
00003346  0000              add [eax],al
00003348  0000              add [eax],al
0000334A  0000              add [eax],al
0000334C  0000              add [eax],al
0000334E  0000              add [eax],al
00003350  0000              add [eax],al
00003352  0000              add [eax],al
00003354  0000              add [eax],al
00003356  0000              add [eax],al
00003358  0000              add [eax],al
0000335A  0000              add [eax],al
0000335C  0000              add [eax],al
0000335E  0000              add [eax],al
00003360  0000              add [eax],al
00003362  0000              add [eax],al
00003364  0000              add [eax],al
00003366  0000              add [eax],al
00003368  0000              add [eax],al
0000336A  0000              add [eax],al
0000336C  0000              add [eax],al
0000336E  0000              add [eax],al
00003370  0000              add [eax],al
00003372  0000              add [eax],al
00003374  0000              add [eax],al
00003376  0000              add [eax],al
00003378  0000              add [eax],al
0000337A  0000              add [eax],al
0000337C  0000              add [eax],al
0000337E  0000              add [eax],al
00003380  0000              add [eax],al
00003382  0000              add [eax],al
00003384  0000              add [eax],al
00003386  0000              add [eax],al
00003388  0000              add [eax],al
0000338A  0000              add [eax],al
0000338C  0000              add [eax],al
0000338E  0000              add [eax],al
00003390  0000              add [eax],al
00003392  0000              add [eax],al
00003394  0000              add [eax],al
00003396  0000              add [eax],al
00003398  0000              add [eax],al
0000339A  0000              add [eax],al
0000339C  0000              add [eax],al
0000339E  0000              add [eax],al
000033A0  0000              add [eax],al
000033A2  0000              add [eax],al
000033A4  0000              add [eax],al
000033A6  0000              add [eax],al
000033A8  0000              add [eax],al
000033AA  0000              add [eax],al
000033AC  0000              add [eax],al
000033AE  0000              add [eax],al
000033B0  0000              add [eax],al
000033B2  0000              add [eax],al
000033B4  0000              add [eax],al
000033B6  0000              add [eax],al
000033B8  0000              add [eax],al
000033BA  0000              add [eax],al
000033BC  0000              add [eax],al
000033BE  0000              add [eax],al
000033C0  0000              add [eax],al
000033C2  0000              add [eax],al
000033C4  0000              add [eax],al
000033C6  0000              add [eax],al
000033C8  0000              add [eax],al
000033CA  0000              add [eax],al
000033CC  0000              add [eax],al
000033CE  0000              add [eax],al
000033D0  0000              add [eax],al
000033D2  0000              add [eax],al
000033D4  0000              add [eax],al
000033D6  0000              add [eax],al
000033D8  0000              add [eax],al
000033DA  0000              add [eax],al
000033DC  0000              add [eax],al
000033DE  0000              add [eax],al
000033E0  48                dec eax
000033E1  2300              and eax,[eax]
000033E3  005923            add [ecx+0x23],bl
000033E6  0000              add [eax],al
000033E8  5F                pop edi
000033E9  2300              and eax,[eax]
000033EB  007623            add [esi+0x23],dh
000033EE  0000              add [eax],al
000033F0  812300009823      and dword [ebx],0x23980000
000033F6  0000              add [eax],al
000033F8  A6                cmpsb
000033F9  2300              and eax,[eax]
000033FB  00B5230000C4      add [ebp-0x3bffffdd],dh
00003401  2300              and eax,[eax]
00003403  00D1              add cl,dl
00003405  2300              and eax,[eax]
00003407  00ED              add ch,ch
00003409  2300              and eax,[eax]
0000340B  00F5              add ch,dh
0000340D  2300              and eax,[eax]
0000340F  0009              add [ecx],cl
00003411  2400              and al,0x0
00003413  00152400002E      add [dword 0x2e000024],dl
00003419  2400              and al,0x0
0000341B  0039              add [ecx],bh
0000341D  2400              and al,0x0
0000341F  004B24            add [ebx+0x24],cl
00003422  0000              add [eax],al
00003424  5D                pop ebp
00003425  2400              and al,0x0
00003427  006D24            add [ebp+0x24],ch
0000342A  0000              add [eax],al
0000342C  7B24              jpo 0x3452
0000342E  0000              add [eax],al
00003430  7B24              jpo 0x3456
00003432  0000              add [eax],al
00003434  7B24              jpo 0x345a
00003436  0000              add [eax],al
00003438  7B24              jpo 0x345e
0000343A  0000              add [eax],al
0000343C  7B24              jpo 0x3462
0000343E  0000              add [eax],al
00003440  7B24              jpo 0x3466
00003442  0000              add [eax],al
00003444  7B24              jpo 0x346a
00003446  0000              add [eax],al
00003448  7B24              jpo 0x346e
0000344A  0000              add [eax],al
0000344C  7B24              jpo 0x3472
0000344E  0000              add [eax],al
00003450  7B24              jpo 0x3476
00003452  0000              add [eax],al
00003454  7B24              jpo 0x347a
00003456  0000              add [eax],al
00003458  7B24              jpo 0x347e
0000345A  0000              add [eax],al
0000345C  7B24              jpo 0x3482
0000345E  0000              add [eax],al
00003460  5F                pop edi
00003461  2500007025        and eax,0x25700000
00003466  0000              add [eax],al
00003468  7625              jna 0x348f
0000346A  0000              add [eax],al
0000346C  8D2500009825      lea esp,[dword 0x25980000]
00003472  0000              add [eax],al
00003474  AF                scasd
00003475  250000BD25        and eax,0x25bd0000
0000347A  0000              add [eax],al
0000347C  CC                int3
0000347D  250000DB25        and eax,0x25db0000
00003482  0000              add [eax],al
00003484  E825000004        call 0x40034ae
00003489  260000            add [es:eax],al
0000348C  0C26              or al,0x26
0000348E  0000              add [eax],al
00003490  2026              and [esi],ah
00003492  0000              add [eax],al
00003494  2C26              sub al,0x26
00003496  0000              add [eax],al
00003498  45                inc ebp
00003499  260000            add [es:eax],al
0000349C  50                push eax
0000349D  260000            add [es:eax],al
000034A0  6226              bound esp,[esi]
000034A2  0000              add [eax],al
000034A4  7426              jz 0x34cc
000034A6  0000              add [eax],al
000034A8  8426              test [esi],ah
000034AA  0000              add [eax],al
000034AC  92                xchg eax,edx
000034AD  260000            add [es:eax],al
000034B0  92                xchg eax,edx
000034B1  260000            add [es:eax],al
000034B4  92                xchg eax,edx
000034B5  260000            add [es:eax],al
000034B8  92                xchg eax,edx
000034B9  260000            add [es:eax],al
000034BC  92                xchg eax,edx
000034BD  260000            add [es:eax],al
000034C0  92                xchg eax,edx
000034C1  260000            add [es:eax],al
000034C4  92                xchg eax,edx
000034C5  260000            add [es:eax],al
000034C8  92                xchg eax,edx
000034C9  260000            add [es:eax],al
000034CC  92                xchg eax,edx
000034CD  260000            add [es:eax],al
000034D0  92                xchg eax,edx
000034D1  260000            add [es:eax],al
000034D4  92                xchg eax,edx
000034D5  260000            add [es:eax],al
000034D8  92                xchg eax,edx
000034D9  260000            add [es:eax],al
000034DC  92                xchg eax,edx
000034DD  260000            add [es:eax],al
000034E0  9C                pushf
000034E1  260000            add [es:eax],al
000034E4  AD                lodsd
000034E5  260000            add [es:eax],al
000034E8  B326              mov bl,0x26
000034EA  0000              add [eax],al
000034EC  CA2600            retf 0x26
000034EF  00D5              add ch,dl
000034F1  260000            add [es:eax],al
000034F4  EC                in al,dx
000034F5  260000            add [es:eax],al
000034F8  FA                cli
000034F9  260000            add [es:eax],al
000034FC  0927              or [edi],esp
000034FE  0000              add [eax],al
00003500  1827              sbb [edi],ah
00003502  0000              add [eax],al
00003504  2527000041        and eax,0x41000027
00003509  27                daa
0000350A  0000              add [eax],al
0000350C  49                dec ecx
0000350D  27                daa
0000350E  0000              add [eax],al
00003510  5D                pop ebp
00003511  27                daa
00003512  0000              add [eax],al
00003514  692700008227      imul esp,[edi],dword 0x27820000
0000351A  0000              add [eax],al
0000351C  8D27              lea esp,[edi]
0000351E  0000              add [eax],al
00003520  9F                lahf
00003521  27                daa
00003522  0000              add [eax],al
00003524  B127              mov cl,0x27
00003526  0000              add [eax],al
00003528  C12700            shl dword [edi],byte 0x0
0000352B  00CF              add bh,cl
0000352D  27                daa
0000352E  0000              add [eax],al
00003530  CF                iret
00003531  27                daa
00003532  0000              add [eax],al
00003534  CF                iret
00003535  27                daa
00003536  0000              add [eax],al
00003538  CF                iret
00003539  27                daa
0000353A  0000              add [eax],al
0000353C  CF                iret
0000353D  27                daa
0000353E  0000              add [eax],al
00003540  CF                iret
00003541  27                daa
00003542  0000              add [eax],al
00003544  CF                iret
00003545  27                daa
00003546  0000              add [eax],al
00003548  CF                iret
00003549  27                daa
0000354A  0000              add [eax],al
0000354C  CF                iret
0000354D  27                daa
0000354E  0000              add [eax],al
00003550  CF                iret
00003551  27                daa
00003552  0000              add [eax],al
00003554  CF                iret
00003555  27                daa
00003556  0000              add [eax],al
00003558  CF                iret
00003559  27                daa
0000355A  0000              add [eax],al
0000355C  CF                iret
0000355D  27                daa
0000355E  0000              add [eax],al
00003560  D827              fsub dword [edi]
00003562  0000              add [eax],al
00003564  DE27              fisub word [edi]
00003566  0000              add [eax],al
00003568  E227              loop 0x3591
0000356A  0000              add [eax],al
0000356C  E427              in al,0x27
0000356E  0000              add [eax],al
00003570  E627              out 0x27,al
00003572  0000              add [eax],al
00003574  E8270000EA        call 0xea0035a0
00003579  27                daa
0000357A  0000              add [eax],al
0000357C  EC                in al,dx
0000357D  27                daa
0000357E  0000              add [eax],al
00003580  EE                out dx,al
00003581  27                daa
00003582  0000              add [eax],al
00003584  F027              lock daa
00003586  0000              add [eax],al
00003588  F227              repne daa
0000358A  0000              add [eax],al
0000358C  F4                hlt
0000358D  27                daa
0000358E  0000              add [eax],al
00003590  F627              mul byte [edi]
00003592  0000              add [eax],al
00003594  F8                clc
00003595  27                daa
00003596  0000              add [eax],al
00003598  FA                cli
00003599  27                daa
0000359A  0000              add [eax],al
0000359C  0428              add al,0x28
0000359E  0000              add [eax],al
000035A0  0828              or [eax],ch
000035A2  0000              add [eax],al
000035A4  0A28              or ch,[eax]
000035A6  0000              add [eax],al
000035A8  0C28              or al,0x28
000035AA  0000              add [eax],al
000035AC  0E                push cs
000035AD  2800              sub [eax],al
000035AF  0010              add [eax],dl
000035B1  2800              sub [eax],al
000035B3  0012              add [edx],dl
000035B5  2800              sub [eax],al
000035B7  001428            add [eax+ebp],dl
000035BA  0000              add [eax],al
000035BC  16                push ss
000035BD  2800              sub [eax],al
000035BF  0018              add [eax],bl
000035C1  2800              sub [eax],al
000035C3  001A              add [edx],bl
000035C5  2800              sub [eax],al
000035C7  001C28            add [eax+ebp],bl
000035CA  0000              add [eax],al
000035CC  1E                push ds
000035CD  2800              sub [eax],al
000035CF  0020              add [eax],ah
000035D1  2800              sub [eax],al
000035D3  0026              add [esi],ah
000035D5  2800              sub [eax],al
000035D7  002C28            add [eax+ebp],ch
000035DA  0000              add [eax],al
000035DC  2E2800            sub [cs:eax],al
000035DF  0030              add [eax],dh
000035E1  2800              sub [eax],al
000035E3  0032              add [edx],dh
000035E5  2800              sub [eax],al
000035E7  003428            add [eax+ebp],dh
000035EA  0000              add [eax],al
000035EC  362800            sub [ss:eax],al
000035EF  0038              add [eax],bh
000035F1  2800              sub [eax],al
000035F3  003A              add [edx],bh
000035F5  2800              sub [eax],al
000035F7  003C28            add [eax+ebp],bh
000035FA  0000              add [eax],al
000035FC  3E2800            sub [ds:eax],al
000035FF  004028            add [eax+0x28],al
00003602  0000              add [eax],al
00003604  42                inc edx
00003605  2800              sub [eax],al
00003607  00442800          add [eax+ebp+0x0],al
0000360B  004B28            add [ebx+0x28],cl
0000360E  0000              add [eax],al
00003610  4D                dec ebp
00003611  2800              sub [eax],al
00003613  004F28            add [edi+0x28],cl
00003616  0000              add [eax],al
00003618  51                push ecx
00003619  2800              sub [eax],al
0000361B  005328            add [ebx+0x28],dl
0000361E  0000              add [eax],al
00003620  55                push ebp
00003621  2800              sub [eax],al
00003623  005728            add [edi+0x28],dl
00003626  0000              add [eax],al
00003628  59                pop ecx
00003629  2800              sub [eax],al
0000362B  005B28            add [ebx+0x28],bl
0000362E  0000              add [eax],al
00003630  5D                pop ebp
00003631  2800              sub [eax],al
00003633  005F28            add [edi+0x28],bl
00003636  0000              add [eax],al
00003638  61                popa
00003639  2800              sub [eax],al
0000363B  006828            add [eax+0x28],ch
0000363E  0000              add [eax],al
00003640  7028              jo 0x366a
00003642  0000              add [eax],al
00003644  7528              jnz 0x366e
00003646  0000              add [eax],al
00003648  7728              ja 0x3672
0000364A  0000              add [eax],al
0000364C  802800            sub byte [eax],0x0
0000364F  008328000086      add [ebx-0x79ffffd8],al
00003655  2800              sub [eax],al
00003657  00892800008C      add [ecx-0x73ffffd8],cl
0000365D  2800              sub [eax],al
0000365F  008F28000092      add [edi-0x6dffffd8],cl
00003665  2800              sub [eax],al
00003667  009528000098      add [ebp-0x67ffffd8],dl
0000366D  2800              sub [eax],al
0000366F  009B2800009F      add [ebx-0x60ffffd8],bl
00003675  2800              sub [eax],al
00003677  00A7280000B2      add [edi-0x4dffffd8],ah
0000367D  2800              sub [eax],al
0000367F  00BB280000C4      add [ebx-0x3bffffd8],bh
00003685  2800              sub [eax],al
00003687  00CD              add ch,cl
00003689  2800              sub [eax],al
0000368B  00D6              add dh,dl
0000368D  2800              sub [eax],al
0000368F  00DF              add bh,bl
00003691  2800              sub [eax],al
00003693  00E8              add al,ch
00003695  2800              sub [eax],al
00003697  00F1              add cl,dh
00003699  2800              sub [eax],al
0000369B  00FA              add dl,bh
0000369D  2800              sub [eax],al
0000369F  0003              add [ebx],al
000036A1  2900              sub [eax],eax
000036A3  000C29            add [ecx+ebp],cl
000036A6  0000              add [eax],al
000036A8  152900001E        adc eax,0x1e000029
000036AD  2900              sub [eax],eax
000036AF  0027              add [edi],ah
000036B1  2900              sub [eax],eax
000036B3  0031              add [ecx],dh
000036B5  2900              sub [eax],eax
000036B7  0031              add [ecx],dh
000036B9  2900              sub [eax],eax
000036BB  003529000039      add [dword 0x39000029],dh
000036C1  2900              sub [eax],eax
000036C3  0000              add [eax],al
000036C5  0000              add [eax],al
000036C7  0000              add [eax],al
000036C9  0000              add [eax],al
000036CB  0000              add [eax],al
000036CD  0000              add [eax],al
000036CF  0000              add [eax],al
000036D1  0000              add [eax],al
000036D3  0000              add [eax],al
000036D5  0000              add [eax],al
000036D7  0000              add [eax],al
000036D9  0000              add [eax],al
000036DB  0000              add [eax],al
000036DD  0000              add [eax],al
000036DF  00D8              add al,bl
000036E1  27                daa
000036E2  0000              add [eax],al
000036E4  DE27              fisub word [edi]
000036E6  0000              add [eax],al
000036E8  E227              loop 0x3711
000036EA  0000              add [eax],al
000036EC  E427              in al,0x27
000036EE  0000              add [eax],al
000036F0  E627              out 0x27,al
000036F2  0000              add [eax],al
000036F4  E8270000EA        call 0xea003720
000036F9  27                daa
000036FA  0000              add [eax],al
000036FC  EC                in al,dx
000036FD  27                daa
000036FE  0000              add [eax],al
00003700  EE                out dx,al
00003701  27                daa
00003702  0000              add [eax],al
00003704  F027              lock daa
00003706  0000              add [eax],al
00003708  F227              repne daa
0000370A  0000              add [eax],al
0000370C  F4                hlt
0000370D  27                daa
0000370E  0000              add [eax],al
00003710  F627              mul byte [edi]
00003712  0000              add [eax],al
00003714  F8                clc
00003715  27                daa
00003716  0000              add [eax],al
00003718  FA                cli
00003719  27                daa
0000371A  0000              add [eax],al
0000371C  0428              add al,0x28
0000371E  0000              add [eax],al
00003720  3D2900003F        cmp eax,0x3f000029
00003725  2900              sub [eax],eax
00003727  004129            add [ecx+0x29],al
0000372A  0000              add [eax],al
0000372C  43                inc ebx
0000372D  2900              sub [eax],eax
0000372F  004529            add [ebp+0x29],al
00003732  0000              add [eax],al
00003734  47                inc edi
00003735  2900              sub [eax],eax
00003737  004929            add [ecx+0x29],cl
0000373A  0000              add [eax],al
0000373C  4B                dec ebx
0000373D  2900              sub [eax],eax
0000373F  004D29            add [ebp+0x29],cl
00003742  0000              add [eax],al
00003744  4F                dec edi
00003745  2900              sub [eax],eax
00003747  001C28            add [eax+ebp],bl
0000374A  0000              add [eax],al
0000374C  1E                push ds
0000374D  2800              sub [eax],al
0000374F  0020              add [eax],ah
00003751  2800              sub [eax],al
00003753  0026              add [esi],ah
00003755  2800              sub [eax],al
00003757  005129            add [ecx+0x29],dl
0000375A  0000              add [eax],al
0000375C  53                push ebx
0000375D  2900              sub [eax],eax
0000375F  005529            add [ebp+0x29],dl
00003762  0000              add [eax],al
00003764  57                push edi
00003765  2900              sub [eax],eax
00003767  005929            add [ecx+0x29],bl
0000376A  0000              add [eax],al
0000376C  5B                pop ebx
0000376D  2900              sub [eax],eax
0000376F  005D29            add [ebp+0x29],bl
00003772  0000              add [eax],al
00003774  5F                pop edi
00003775  2900              sub [eax],eax
00003777  006129            add [ecx+0x29],ah
0000377A  0000              add [eax],al
0000377C  3E2800            sub [ds:eax],al
0000377F  004028            add [eax+0x28],al
00003782  0000              add [eax],al
00003784  42                inc edx
00003785  2800              sub [eax],al
00003787  00442800          add [eax+ebp+0x0],al
0000378B  004B28            add [ebx+0x28],cl
0000378E  0000              add [eax],al
00003790  6329              arpl [ecx],bp
00003792  0000              add [eax],al
00003794  652900            sub [gs:eax],eax
00003797  006729            add [edi+0x29],ah
0000379A  0000              add [eax],al
0000379C  692900006B29      imul ebp,[ecx],dword 0x296b0000
000037A2  0000              add [eax],al
000037A4  6D                insd
000037A5  2900              sub [eax],eax
000037A7  006F29            add [edi+0x29],ch
000037AA  0000              add [eax],al
000037AC  5B                pop ebx
000037AD  2800              sub [eax],al
000037AF  005D28            add [ebp+0x28],bl
000037B2  0000              add [eax],al
000037B4  5F                pop edi
000037B5  2800              sub [eax],al
000037B7  006128            add [ecx+0x28],ah
000037BA  0000              add [eax],al
000037BC  6828000070        push dword 0x70000028
000037C1  2800              sub [eax],al
000037C3  007528            add [ebp+0x28],dh
000037C6  0000              add [eax],al
000037C8  7728              ja 0x37f2
000037CA  0000              add [eax],al
000037CC  802800            sub byte [eax],0x0
000037CF  008328000086      add [ebx-0x79ffffd8],al
000037D5  2800              sub [eax],al
000037D7  00892800008C      add [ecx-0x73ffffd8],cl
000037DD  2800              sub [eax],al
000037DF  008F28000092      add [edi-0x6dffffd8],cl
000037E5  2800              sub [eax],al
000037E7  009528000098      add [ebp-0x67ffffd8],dl
000037ED  2800              sub [eax],al
000037EF  009B2800009F      add [ebx-0x60ffffd8],bl
000037F5  2800              sub [eax],al
000037F7  00A728000071      add [edi+0x71000028],ah
000037FD  2900              sub [eax],eax
000037FF  007A29            add [edx+0x29],bh
00003802  0000              add [eax],al
00003804  832900            sub dword [ecx],byte +0x0
00003807  008C2900009529    add [ecx+ebp+0x29950000],cl
0000380E  0000              add [eax],al
00003810  9E                sahf
00003811  2900              sub [eax],eax
00003813  00A7290000B0      add [edi-0x4fffffd7],ah
00003819  2900              sub [eax],eax
0000381B  00B9290000C2      add [ecx-0x3dffffd7],bh
00003821  2900              sub [eax],eax
00003823  00CB              add bl,cl
00003825  2900              sub [eax],eax
00003827  00D4              add ah,dl
00003829  2900              sub [eax],eax
0000382B  00DD              add ch,bl
0000382D  2900              sub [eax],eax
0000382F  00E6              add dh,ah
00003831  2900              sub [eax],eax
00003833  0031              add [ecx],dh
00003835  2900              sub [eax],eax
00003837  0031              add [ecx],dh
00003839  2900              sub [eax],eax
0000383B  003529000039      add [dword 0x39000029],dh
00003841  2900              sub [eax],eax
00003843  0000              add [eax],al
00003845  0000              add [eax],al
00003847  0000              add [eax],al
00003849  0000              add [eax],al
0000384B  0000              add [eax],al
0000384D  0000              add [eax],al
0000384F  0000              add [eax],al
00003851  0000              add [eax],al
00003853  0000              add [eax],al
00003855  0000              add [eax],al
00003857  0000              add [eax],al
00003859  0000              add [eax],al
0000385B  0000              add [eax],al
0000385D  0000              add [eax],al
0000385F  00D8              add al,bl
00003861  27                daa
00003862  0000              add [eax],al
00003864  DE27              fisub word [edi]
00003866  0000              add [eax],al
00003868  F02900            lock sub [eax],eax
0000386B  00F2              add dl,dh
0000386D  2900              sub [eax],eax
0000386F  00F4              add ah,dh
00003871  2900              sub [eax],eax
00003873  00F7              add bh,dh
00003875  2900              sub [eax],eax
00003877  00F9              add cl,bh
00003879  2900              sub [eax],eax
0000387B  00FB              add bl,bh
0000387D  2900              sub [eax],eax
0000387F  00FD              add ch,bh
00003881  2900              sub [eax],eax
00003883  00FF              add bh,bh
00003885  2900              sub [eax],eax
00003887  0001              add [ecx],al
00003889  2A00              sub al,[eax]
0000388B  0003              add [ebx],al
0000388D  2A00              sub al,[eax]
0000388F  00052A000007      add [dword 0x700002a],al
00003895  2A00              sub al,[eax]
00003897  00FA              add dl,bh
00003899  27                daa
0000389A  0000              add [eax],al
0000389C  0428              add al,0x28
0000389E  0000              add [eax],al
000038A0  3D2900003F        cmp eax,0x3f000029
000038A5  2900              sub [eax],eax
000038A7  004129            add [ecx+0x29],al
000038AA  0000              add [eax],al
000038AC  43                inc ebx
000038AD  2900              sub [eax],eax
000038AF  004529            add [ebp+0x29],al
000038B2  0000              add [eax],al
000038B4  47                inc edi
000038B5  2900              sub [eax],eax
000038B7  004929            add [ecx+0x29],cl
000038BA  0000              add [eax],al
000038BC  4B                dec ebx
000038BD  2900              sub [eax],eax
000038BF  004D29            add [ebp+0x29],cl
000038C2  0000              add [eax],al
000038C4  4F                dec edi
000038C5  2900              sub [eax],eax
000038C7  0009              add [ecx],cl
000038C9  2A00              sub al,[eax]
000038CB  000B              add [ebx],cl
000038CD  2A00              sub al,[eax]
000038CF  0020              add [eax],ah
000038D1  2800              sub [eax],al
000038D3  0026              add [esi],ah
000038D5  2800              sub [eax],al
000038D7  005129            add [ecx+0x29],dl
000038DA  0000              add [eax],al
000038DC  53                push ebx
000038DD  2900              sub [eax],eax
000038DF  005529            add [ebp+0x29],dl
000038E2  0000              add [eax],al
000038E4  57                push edi
000038E5  2900              sub [eax],eax
000038E7  005929            add [ecx+0x29],bl
000038EA  0000              add [eax],al
000038EC  5B                pop ebx
000038ED  2900              sub [eax],eax
000038EF  005D29            add [ebp+0x29],bl
000038F2  0000              add [eax],al
000038F4  5F                pop edi
000038F5  2900              sub [eax],eax
000038F7  006129            add [ecx+0x29],ah
000038FA  0000              add [eax],al
000038FC  0D2A00000F        or eax,0xf00002a
00003901  2A00              sub al,[eax]
00003903  0011              add [ecx],dl
00003905  2A00              sub al,[eax]
00003907  00442800          add [eax+ebp+0x0],al
0000390B  0013              add [ebx],dl
0000390D  2A00              sub al,[eax]
0000390F  006329            add [ebx+0x29],ah
00003912  0000              add [eax],al
00003914  652900            sub [gs:eax],eax
00003917  006729            add [edi+0x29],ah
0000391A  0000              add [eax],al
0000391C  692900006B29      imul ebp,[ecx],dword 0x296b0000
00003922  0000              add [eax],al
00003924  6D                insd
00003925  2900              sub [eax],eax
00003927  006F29            add [edi+0x29],ch
0000392A  0000              add [eax],al
0000392C  152A000017        adc eax,0x1700002a
00003931  2A00              sub al,[eax]
00003933  0019              add [ecx],bl
00003935  2A00              sub al,[eax]
00003937  006128            add [ecx+0x28],ah
0000393A  0000              add [eax],al
0000393C  1B2A              sbb ebp,[edx]
0000393E  0000              add [eax],al
00003940  7028              jo 0x396a
00003942  0000              add [eax],al
00003944  7528              jnz 0x396e
00003946  0000              add [eax],al
00003948  7728              ja 0x3972
0000394A  0000              add [eax],al
0000394C  802800            sub byte [eax],0x0
0000394F  008328000086      add [ebx-0x79ffffd8],al
00003955  2800              sub [eax],al
00003957  00892800008C      add [ecx-0x73ffffd8],cl
0000395D  2800              sub [eax],al
0000395F  008F28000092      add [edi-0x6dffffd8],cl
00003965  2800              sub [eax],al
00003967  009528000098      add [ebp-0x67ffffd8],dl
0000396D  2800              sub [eax],al
0000396F  009B2800009F      add [ebx-0x60ffffd8],bl
00003975  2800              sub [eax],al
00003977  00A728000024      add [edi+0x24000028],ah
0000397D  2A00              sub al,[eax]
0000397F  0029              add [ecx],ch
00003981  2A00              sub al,[eax]
00003983  002C2A            add [edx+ebp],ch
00003986  0000              add [eax],al
00003988  CD28              int 0x28
0000398A  0000              add [eax],al
0000398C  312A              xor [edx],ebp
0000398E  0000              add [eax],al
00003990  DF28              fild qword [eax]
00003992  0000              add [eax],al
00003994  362A00            sub al,[ss:eax]
00003997  00F1              add cl,dh
00003999  2800              sub [eax],al
0000399B  003C2A            add [edx+ebp],bh
0000399E  0000              add [eax],al
000039A0  40                inc eax
000039A1  2A00              sub al,[eax]
000039A3  00452A            add [ebp+0x2a],al
000039A6  0000              add [eax],al
000039A8  4C                dec esp
000039A9  2A00              sub al,[eax]
000039AB  00532A            add [ebx+0x2a],dl
000039AE  0000              add [eax],al
000039B0  27                daa
000039B1  2900              sub [eax],eax
000039B3  0031              add [ecx],dh
000039B5  2900              sub [eax],eax
000039B7  0031              add [ecx],dh
000039B9  2900              sub [eax],eax
000039BB  003529000039      add [dword 0x39000029],dh
000039C1  2900              sub [eax],eax
000039C3  0000              add [eax],al
000039C5  0000              add [eax],al
000039C7  0000              add [eax],al
000039C9  0000              add [eax],al
000039CB  0000              add [eax],al
000039CD  0000              add [eax],al
000039CF  0000              add [eax],al
000039D1  0000              add [eax],al
000039D3  0000              add [eax],al
000039D5  0000              add [eax],al
000039D7  0000              add [eax],al
000039D9  0000              add [eax],al
000039DB  0000              add [eax],al
000039DD  0000              add [eax],al
000039DF  0010              add [eax],dl
000039E1  2B00              sub eax,[eax]
000039E3  0021              add [ecx],ah
000039E5  2B00              sub eax,[eax]
000039E7  0027              add [edi],ah
000039E9  2B00              sub eax,[eax]
000039EB  003E              add [esi],bh
000039ED  2B00              sub eax,[eax]
000039EF  00492B            add [ecx+0x2b],cl
000039F2  0000              add [eax],al
000039F4  60                pusha
000039F5  2B00              sub eax,[eax]
000039F7  006E2B            add [esi+0x2b],ch
000039FA  0000              add [eax],al
000039FC  7D2B              jnl 0x3a29
000039FE  0000              add [eax],al
00003A00  8C2B              mov [ebx],gs
00003A02  0000              add [eax],al
00003A04  99                cdq
00003A05  2B00              sub eax,[eax]
00003A07  00B52B0000BD      add [ebp-0x42ffffd5],dh
00003A0D  2B00              sub eax,[eax]
00003A0F  00D1              add cl,dl
00003A11  2B00              sub eax,[eax]
00003A13  00DD              add ch,bl
00003A15  2B00              sub eax,[eax]
00003A17  00F6              add dh,dh
00003A19  2B00              sub eax,[eax]
00003A1B  0001              add [ecx],al
00003A1D  2C00              sub al,0x0
00003A1F  0013              add [ebx],dl
00003A21  2C00              sub al,0x0
00003A23  00252C000035      add [dword 0x3500002c],ah
00003A29  2C00              sub al,0x0
00003A2B  00432C            add [ebx+0x2c],al
00003A2E  0000              add [eax],al
00003A30  43                inc ebx
00003A31  2C00              sub al,0x0
00003A33  00432C            add [ebx+0x2c],al
00003A36  0000              add [eax],al
00003A38  43                inc ebx
00003A39  2C00              sub al,0x0
00003A3B  00432C            add [ebx+0x2c],al
00003A3E  0000              add [eax],al
00003A40  43                inc ebx
00003A41  2C00              sub al,0x0
00003A43  00432C            add [ebx+0x2c],al
00003A46  0000              add [eax],al
00003A48  43                inc ebx
00003A49  2C00              sub al,0x0
00003A4B  00432C            add [ebx+0x2c],al
00003A4E  0000              add [eax],al
00003A50  43                inc ebx
00003A51  2C00              sub al,0x0
00003A53  00432C            add [ebx+0x2c],al
00003A56  0000              add [eax],al
00003A58  43                inc ebx
00003A59  2C00              sub al,0x0
00003A5B  00432C            add [ebx+0x2c],al
00003A5E  0000              add [eax],al
